((dp0
S'log-4.cnf'
p1
(dp2
S'barv_lower_bound'
p3
cnumpy.core.multiarray
scalar
p4
(cnumpy
dtype
p5
(S'f8'
p6
I0
I1
tp7
Rp8
(I3
S'<'
p9
NNNI-1
I-1
I0
tp10
bS'q8Lu~\xaf\xd7?'
p11
tp12
Rp13
sS'exact_log_Z'
p14
cdecimal
Decimal
p15
(S'65.32345235557495907353541722'
p16
tp17
Rp18
sS'barv_upper_bound'
p19
g4
(g8
S'\xb8+\xc9\xdc\xf7sr@'
p20
tp21
Rp22
sS'gumbel_upper'
p23
F102.3926684285677
sS'barv_estimator'
p24
g4
(g8
S'^8\x1e/\x80!S@'
p25
tp26
Rp27
ssS'sat-grid-pbl-0010.cnf'
p28
(dp29
g3
g4
(g8
S'6\xfc\r\x1bp\x06\xfa?'
p30
tp31
Rp32
sg14
g15
(S'54.74110355310283121263143109'
p33
tp34
Rp35
sg19
g4
(g8
S'$\xad^XI\xe3L@'
p36
tp37
Rp38
sg23
F50.41948603999726
sg24
g4
(g8
S'q\xc5+\xe8^\xff>@'
p39
tp40
Rp41
ssS'tire-1.cnf'
p42
(dp43
g3
g4
(g8
S'&JO]\xba\x16\xc7?'
p44
tp45
Rp46
sg14
g15
(S'20.40366757860640219747606596'
p47
tp48
Rp49
sg19
g4
(g8
S'\xc8\xa2"D:\x84S@'
p50
tp51
Rp52
sg23
F49.501441991321926
sg24
g4
(g8
S'v{\x8b\x9cA\xe36@'
p53
tp54
Rp55
ssS'log-1.cnf'
p56
(dp57
g3
g4
(g8
S'\xcc(\xb6\xdd2\xd6\xd1?'
p58
tp59
Rp60
sg14
g15
(S'47.78185814456179880189729527'
p61
tp62
Rp63
sg19
g4
(g8
S'l\x03\xe6\xd8\xe1\xd7c@'
p64
tp65
Rp66
sg23
F135.5649195530595
sg24
g4
(g8
S'T\xef\x96\x14\xd5\xeaE@'
p67
tp68
Rp69
ssS'tire-4.cnf'
p70
(dp71
g3
g4
(g8
S'\xca\xbd\xc8\x7f\x1c\xe6\xc4?'
p72
tp73
Rp74
sg14
g15
(S'32.26760906093560147581645240'
p75
tp76
Rp77
sg19
g4
(g8
S'\xc7\xb1\x9b\r\xca%`@'
p78
tp79
Rp80
sg23
F93.36167085220018
sg24
g4
(g8
S'y\xc0\x06\xba\xf5\xc7@@'
p81
tp82
Rp83
ssS'log-3.cnf'
p84
(dp85
g3
g4
(g8
S'Dw)\xd5p1\xb5?'
p86
tp87
Rp88
sg14
g15
(S'26.35754624642712697549596379'
p89
tp90
Rp91
sg19
g4
(g8
S'H\xeaO\xd6\x94\xe7c@'
p92
tp93
Rp94
sg23
F44.83800340238274
sg24
g4
(g8
S'*f/c\xdd\xacA@'
p95
tp96
Rp97
ssS'tire-3.cnf'
p98
(dp99
g3
g4
(g8
S'R\xf7\xfe\xd6\xfdh\xc3?'
p100
tp101
Rp102
sg14
g15
(S'26.12846440361733772531178430'
p103
tp104
Rp105
sg19
g4
(g8
S'F\xd6=jp\xbaY@'
p106
tp107
Rp108
sg23
F96.82319496928419
sg24
g4
(g8
S'\x8a\xfb \x01\xca\x92;@'
p109
tp110
Rp111
ssS'c1355.isc'
p112
(dp113
g3
g4
(g8
S'\xf3\xfa6\xc4\xddZ\xf0?'
p114
tp115
Rp116
sg14
g15
(S'28.41903440295775768610651698'
p117
tp118
Rp119
sg19
g4
(g8
S'QP\x85o0\x97c@'
p120
tp121
Rp122
sg23
F117.65139624150939
sg24
g4
(g8
S'a\xe9|g\xebuL@'
p123
tp124
Rp125
ssS'sat-grid-pbl-0015.cnf'
p126
(dp127
g3
g4
(g8
S'p\xcf\xc3\xeb\xd0I\x11@'
p128
tp129
Rp130
sg14
g15
(S'125.4425195006362289639072410'
p131
tp132
Rp133
sg19
g4
(g8
S'\xcc\x87\x8al\x89\xb8_@'
p134
tp135
Rp136
sg23
F131.398284474981
sg24
g4
(g8
S'\xaf\xf7-\xf4\xea\xcbQ@'
p137
tp138
Rp139
ssS'sat-grid-pbl-0025.cnf'
p140
(dp141
g3
g4
(g8
S'\xa1\x05\x81c\xa6\x8c*@'
p142
tp143
Rp144
sg14
g15
(S'348.2810069124694245655975633'
p145
tp146
Rp147
sg19
g4
(g8
S'\xc0:\x92\xc6!yu@'
p148
tp149
Rp150
sg23
F402.8381239097727
sg24
g4
(g8
S'\xfbQ\x8e\xb7\xff\xd0h@'
p151
tp152
Rp153
ssS'c499.isc'
p154
(dp155
g3
g4
(g8
S'q\xd3\x0b\xe8\xa5s\xf3?'
p156
tp157
Rp158
sg14
g15
(S'28.41903440295775768610651698'
p159
tp160
Rp161
sg19
g4
(g8
S'l\x9b\xae4\x05\xa4W@'
p162
tp163
Rp164
sg23
F76.67265412161377
sg24
g4
(g8
S'\xac(\xaa\xc2\xd5ID@'
p165
tp166
Rp167
ssS'c432.isc'
p168
(dp169
g3
g4
(g8
S'\xe6o\x1f\x8b\xe0\x8f\xe6?'
p170
tp171
Rp172
sg14
g15
(S'24.95329850015803113902035637'
p173
tp174
Rp175
sg19
g4
(g8
S'\xbc\xcc\x99\x88\t\xf6Q@'
p176
tp177
Rp178
sg23
F50.31815197306381
sg24
g4
(g8
S'\xbb\xbf\xdd%\x95\xee<@'
p179
tp180
Rp181
ssS'c880.isc'
p182
(dp183
g3
g4
(g8
S'\xbb\xa6\x83\xa3T\xe7\xf7?'
p184
tp185
Rp186
sg14
g15
(S'41.58883083359671856503392729'
p187
tp188
Rp189
sg19
g4
(g8
S'Z\x17D\x9d\xcc\xe9a@'
p190
tp191
Rp192
sg23
F132.96844967366528
sg24
g4
(g8
S'\xe3\x1c\xdc]\x12\x12M@'
p193
tp194
Rp195
ssS'c1908.isc'
p196
(dp197
g3
g4
(g8
S';\xa9\xa7\x0c(\xf7\xeb?'
p198
tp199
Rp200
sg14
g15
(S'22.87385695847819521076866001'
p201
tp202
Rp203
sg19
g4
(g8
S'4u\xeb\x06b\xdbf@'
p204
tp205
Rp206
sg23
F120.06231276639846
sg24
g4
(g8
S'\xde\x9d\xc5\x1f\x0c\xfaN@'
p207
tp208
Rp209
ssS'sat-grid-pbl-0020.cnf'
p210
(dp211
g3
g4
(g8
S'\xf4h$F\xd9k\x1f@'
p212
tp213
Rp214
sg14
g15
(S'220.3660190724091582010586847'
p215
tp216
Rp217
sg19
g4
(g8
S"\xec*'\xe5\xa0{k@"
p218
tp219
Rp220
sg23
F231.00896255121668
sg24
g4
(g8
S',C\xf7\x14\xc3\x1b_@'
p221
tp222
Rp223
ssS'rb.cnf'
p224
(dp225
g3
g4
(g8
S'\xf9bL|[c9@'
p226
tp227
Rp228
sg14
g15
(S'855.9432668896412104221506170'
p229
tp230
Rp231
sg19
g4
(g8
S'\xd8Ee\x91\xcb\x08\x8b@'
p232
tp233
Rp234
sg23
F887.7598461828421
sg24
g4
(g8
S'.\x12{F\xd8\x9d|@'
p235
tp236
Rp237
ssS'c2670.isc'
p238
(dp239
g3
g4
(g8
S'\x8fti\xfa\xf9\xa0\x11@'
p240
tp241
Rp242
sg14
g15
(S'161.5032930704672570942150843'
p243
tp244
Rp245
sg19
g4
(g8
S'\xb2N\x8a\xaa\xd5\xc1x@'
p246
tp247
Rp248
sg23
F288.8030844322026
sg24
g4
(g8
S'\xe4\x1b\x102\x98Sd@'
p249
tp250
Rp251
ssS'ra.cnf'
p252
(dp253
g3
g4
(g8
S'+A\xef\xdd\xe4-8@'
p254
tp255
Rp256
sg14
g15
(S'659.1673732008658148371471422'
p257
tp258
Rp259
sg19
g4
(g8
S'\xc3\xe9\xfbg\xa5\xf0\x83@'
p260
tp261
Rp262
sg23
F725.4842050056667
sg24
g4
(g8
S'\xd3\x11\x99Y-\xd2v@'
p263
tp264
Rp265
ssS'log-2.cnf'
p266
(dp267
g3
g4
(g8
S'\x1a\xa13g\x80k\xb0?'
p268
tp269
Rp270
sg14
g15
(S'24.19940808387429746877865551'
p271
tp272
Rp273
sg19
g4
(g8
S'\x17\x03\xca\xbf\x9ckb@'
p274
tp275
Rp276
sg23
F-13.879210643536005
sg24
g4
(g8
S'\xb3\x84\x88\xb2\xc1\xd0?@'
p277
tp278
Rp279
ssS'sat-grid-pbl-0030.cnf'
p280
(dp281
g3
g4
(g8
S')b\x1e\x18Q\x1a3@'
p282
tp283
Rp284
sg14
g15
(S'502.3959132375194767325914187'
p285
tp286
Rp287
sg19
g4
(g8
S'\xaa\xe3-\xfd\xc5\x88~@'
p288
tp289
Rp290
sg23
F545.1894507239854
sg24
g4
(g8
S'F\xdc\x15\xb1\x88\xabq@'
p291
tp292
Rp293
ssS'tire-2.cnf'
p294
(dp295
g3
g4
(g8
S'rq\x99k\xb3\xe0\xc3?'
p296
tp297
Rp298
sg14
g15
(S'27.32852267575170047911478367'
p299
tp300
Rp301
sg19
g4
(g8
S'\x90*\xc9\xd8\x91\x16Y@'
p302
tp303
Rp304
sg23
F65.25059265506006
sg24
g4
(g8
S'Ut\x8c\xd3\xc5$;@'
p305
tp306
Rp307
ssI1
I100
tp308
.