((dp0
S'log-4.cnf'
p1
(dp2
S'barv_lower_bound'
p3
cnumpy.core.multiarray
scalar
p4
(cnumpy
dtype
p5
(S'f8'
p6
I0
I1
tp7
Rp8
(I3
S'<'
p9
NNNI-1
I-1
I0
tp10
bS'\x9f5\xc0#w<\xd4?'
p11
tp12
Rp13
sS'exact_log_Z'
p14
cdecimal
Decimal
p15
(S'65.32345235557495907353541722'
p16
tp17
Rp18
sS'barv_upper_bound'
p19
g4
(g8
S'b?0\xa9\xe3\x15|@'
p20
tp21
Rp22
sS'gumbel_upper'
p23
F141.76198069658457
sS'barv_estimator'
p24
g4
(g8
S'\xc5S\xbf\xde\xde+[@'
p25
tp26
Rp27
ssS'sat-grid-pbl-0010.cnf'
p28
(dp29
g3
g4
(g8
S'\x7f\x18\xf9\xca/\xb5\r@'
p30
tp31
Rp32
sg14
g15
(S'54.74110355310283121263143109'
p33
tp34
Rp35
sg19
g4
(g8
S' \xc2\xea\xff\xb8\x96R@'
p36
tp37
Rp38
sg23
F62.12112568162583
sg24
g4
(g8
S'\xf6\x81\xc7\xc6lzJ@'
p39
tp40
Rp41
ssS'tire-1.cnf'
p42
(dp43
g3
g4
(g8
S'\xa6\xb3/ja\x8e\xb7?'
p44
tp45
Rp46
sg14
g15
(S'20.40366757860640219747606596'
p47
tp48
Rp49
sg19
g4
(g8
S'\x86=\xb4\xda\xfa\xa4]@'
p50
tp51
Rp52
sg23
F44.708520246922106
sg24
g4
(g8
S'\x8c\xc2?3\xf9I@@'
p53
tp54
Rp55
ssS'log-1.cnf'
p56
(dp57
g3
g4
(g8
S'\x10N\xbc\xd6{\x92\xcf?'
p58
tp59
Rp60
sg14
g15
(S'47.78185814456179880189729527'
p61
tp62
Rp63
sg19
g4
(g8
S'\xfc\xb7\xb7N\xd4\xd0n@'
p64
tp65
Rp66
sg23
F74.09879014260852
sg24
g4
(g8
S'\xd6Y?\x81\xd8RP@'
p67
tp68
Rp69
ssS'tire-4.cnf'
p70
(dp71
g3
g4
(g8
S'\xa3\x0f}\xee~Z\xc5?'
p72
tp73
Rp74
sg14
g15
(S'32.26760906093560147581645240'
p75
tp76
Rp77
sg19
g4
(g8
S'\x04#j\xf2\xfc\xf1j@'
p78
tp79
Rp80
sg23
F80.1840253614964
sg24
g4
(g8
S'\x00\xf7\xb7Z\x92\xcbK@'
p81
tp82
Rp83
ssS'log-3.cnf'
p84
(dp85
g3
g4
(g8
S'\x9d\xf1&\xf9EU\x93?'
p86
tp87
Rp88
sg14
g15
(S'26.35754624642712697549596379'
p89
tp90
Rp91
sg19
g4
(g8
S'\x86\xa8V\xd6\xb4gk@'
p92
tp93
Rp94
sg23
F79.34784461871453
sg24
g4
(g8
S'\xcb\x9b\x8c\xa6\x08x?@'
p95
tp96
Rp97
ssS'tire-3.cnf'
p98
(dp99
g3
g4
(g8
S'\xcf(\xbdIHX\xc5?'
p100
tp101
Rp102
sg14
g15
(S'26.12846440361733772531178430'
p103
tp104
Rp105
sg19
g4
(g8
S'\xa9f\x19\xa1B\x93e@'
p106
tp107
Rp108
sg23
F51.48025690283754
sg24
g4
(g8
S'd\x80\xeb\xf6\xa9mG@'
p109
tp110
Rp111
ssS'c1355.isc'
p112
(dp113
g3
g4
(g8
S'\xfd\x19\x9e\xa3r\xf6\xfa?'
p114
tp115
Rp116
sg14
g15
(S'28.41903440295775768610651698'
p117
tp118
Rp119
sg19
g4
(g8
S'\xa4\xe0D\xd0\x05\x8el@'
p120
tp121
Rp122
sg23
F100.20455779628699
sg24
g4
(g8
S'\xef9\xfa\xfeB.V@'
p123
tp124
Rp125
ssS'sat-grid-pbl-0015.cnf'
p126
(dp127
g3
g4
(g8
S'@\xb4z\x8e\x04\x97%@'
p128
tp129
Rp130
sg14
g15
(S'125.4425195006362289639072410'
p131
tp132
Rp133
sg19
g4
(g8
S'|\x92|\xe9\x820d@'
p134
tp135
Rp136
sg23
F127.50180988939822
sg24
g4
(g8
S'\xeb\x83\x9aJ`J^@'
p137
tp138
Rp139
ssS'sat-grid-pbl-0025.cnf'
p140
(dp141
g3
g4
(g8
S'\x83\x80\xc3\x8d(BA@'
p142
tp143
Rp144
sg14
g15
(S'348.2810069124694245655975633'
p145
tp146
Rp147
sg19
g4
(g8
S'\xceM\xe1\x84.\x1b{@'
p148
tp149
Rp150
sg23
F374.91294451050874
sg24
g4
(g8
S'\x8a\x90\t\x12\x8d\xe1t@'
p151
tp152
Rp153
ssS'c499.isc'
p154
(dp155
g3
g4
(g8
S'>UX\xa5\x0e\x19\xf9?'
p156
tp157
Rp158
sg14
g15
(S'28.41903440295775768610651698'
p159
tp160
Rp161
sg19
g4
(g8
S'2\x97\x83v\x8cv_@'
p162
tp163
Rp164
sg23
F68.2027824543143
sg24
g4
(g8
S'\xf8%\xae\xaa\x81\xa0L@'
p165
tp166
Rp167
ssS'c432.isc'
p168
(dp169
g3
g4
(g8
S'X\xe4\xe6E\xc0C\xf2?'
p170
tp171
Rp172
sg14
g15
(S'24.95329850015803113902035637'
p173
tp174
Rp175
sg19
g4
(g8
S'\xf0\xdb\x8b\xdb\xfb\xbaY@'
p176
tp177
Rp178
sg23
F53.36920534126724
sg24
g4
(g8
S'|\x97\xef\xea\xf0\x14G@'
p179
tp180
Rp181
ssS'c880.isc'
p182
(dp183
g3
g4
(g8
S'S\xfd\x07\x93\x07(\xff?'
p184
tp185
Rp186
sg14
g15
(S'41.58883083359671856503392729'
p187
tp188
Rp189
sg19
g4
(g8
S'\xad\xff\x8c\xe7\r\xf8g@'
p190
tp191
Rp192
sg23
F100.18134459417493
sg24
g4
(g8
S'\xaa!\x11\xefi=T@'
p193
tp194
Rp195
ssS'c1908.isc'
p196
(dp197
g3
g4
(g8
S'W\x88\xf4\x9e\xfd\xb3\xf0?'
p198
tp199
Rp200
sg14
g15
(S'22.87385695847819521076866001'
p201
tp202
Rp203
sg19
g4
(g8
S'\xcb\xd5\xfd+\r1p@'
p204
tp205
Rp206
sg23
F125.31140772399424
sg24
g4
(g8
S"\xe6\x16\xfd\xdc'\xf0U@"
p207
tp208
Rp209
ssS'sat-grid-pbl-0020.cnf'
p210
(dp211
g3
g4
(g8
S'\xbe\x1d\x97\xa8C<4@'
p212
tp213
Rp214
sg14
g15
(S'220.3660190724091582010586847'
p215
tp216
Rp217
sg19
g4
(g8
S'\xd6\x1d\xad\x14\xc5\x81q@'
p218
tp219
Rp220
sg23
F245.36082078764426
sg24
g4
(g8
S'\x16\xbc\xc8\xdc\xce_j@'
p221
tp222
Rp223
ssS'rb.cnf'
p224
(dp225
g3
g4
(g8
S'\xb7\xb7L\xa1\xdd\x17U@'
p226
tp227
Rp228
sg14
g15
(S'855.9432668896412104221506170'
p229
tp230
Rp231
sg19
g4
(g8
S'\x1b\x9dD\xc0]\x86\x92@'
p232
tp233
Rp234
sg23
F867.3888525320447
sg24
g4
(g8
S'\xfd\xa4\xc4\xe8\x87\xb8\x8a@'
p235
tp236
Rp237
ssS'c2670.isc'
p238
(dp239
g3
g4
(g8
S'\x95\xff\x92\xca\xfc\xac"@'
p240
tp241
Rp242
sg14
g15
(S'161.5032930704672570942150843'
p243
tp244
Rp245
sg19
g4
(g8
S'\x84\x83m\xe2\x05]\x81@'
p246
tp247
Rp248
sg23
F322.11844726159313
sg24
g4
(g8
S'\x18\xceA\xad\x9c\x1dp@'
p249
tp250
Rp251
ssS'ra.cnf'
p252
(dp253
g3
g4
(g8
S'\xafW\x95\xed\x0cpP@'
p254
tp255
Rp256
sg14
g15
(S'659.1673732008658148371471422'
p257
tp258
Rp259
sg19
g4
(g8
S'(g\xa8\xf8\tu\x89@'
p260
tp261
Rp262
sg23
F693.3723193348949
sg24
g4
(g8
S'\xc8\xffZ\xb5^g\x83@'
p263
tp264
Rp265
ssS'log-2.cnf'
p266
(dp267
g3
g4
(g8
S'\x81\x88\x12\xcc6\x9e<?'
p268
tp269
Rp270
sg14
g15
(S'24.19940808387429746877865551'
p271
tp272
Rp273
sg19
g4
(g8
S'sZw\x1d\xbc\xbbm@'
p274
tp275
Rp276
sg23
F59.73112732784857
sg24
g4
(g8
S'\xcd\xad\x05w\xd65E@'
p277
tp278
Rp279
ssS'sat-grid-pbl-0030.cnf'
p280
(dp281
g3
g4
(g8
S'\xc8A\xef^\xd8\x82J@'
p282
tp283
Rp284
sg14
g15
(S'502.3959132375194767325914187'
p285
tp286
Rp287
sg19
g4
(g8
S'\xb2<\x05Abj\x83@'
p288
tp289
Rp290
sg23
F553.7804540251648
sg24
g4
(g8
S'\xb9\xac\x98)Mr~@'
p291
tp292
Rp293
ssS'tire-2.cnf'
p294
(dp295
g3
g4
(g8
S'zN \xaa\x91\n\xb9?'
p296
tp297
Rp298
sg14
g15
(S'27.32852267575170047911478367'
p299
tp300
Rp301
sg19
g4
(g8
S'\x92\\\xbc\x82\xe5\xfac@'
p302
tp303
Rp304
sg23
F46.196703458265176
sg24
g4
(g8
S'\x92\n\r\xfb"\x96D@'
p305
tp306
Rp307
ssI10
I10
tp308
.