((dp0
S'log-4.cnf'
p1
(dp2
S'barv_lower_bound'
p3
cnumpy.core.multiarray
scalar
p4
(cnumpy
dtype
p5
(S'f8'
p6
I0
I1
tp7
Rp8
(I3
S'<'
p9
NNNI-1
I-1
I0
tp10
bS'Vf\xb9\x1a\xdc\x06\x97?'
p11
tp12
Rp13
sS'exact_log_Z'
p14
cdecimal
Decimal
p15
(S'65.32345235557495907353541722'
p16
tp17
Rp18
sS'barv_upper_bound'
p19
g4
(g8
S'\xfa\xa1)\xbd\xc2\x9a|@'
p20
tp21
Rp22
sS'gumbel_upper'
p23
F156.915144548651
sS'barv_estimator'
p24
g4
(g8
S'\xb6\xe8\xf4\xf4\x99\xa1V@'
p25
tp26
Rp27
ssS'sat-grid-pbl-0010.cnf'
p28
(dp29
g3
g4
(g8
S'\xe3\xc0\xcd\xa0N\xa8\t@'
p30
tp31
Rp32
sg14
g15
(S'54.74110355310283121263143109'
p33
tp34
Rp35
sg19
g4
(g8
S'i\x9f*\x9a\x05\xedR@'
p36
tp37
Rp38
sg23
F61.077355345732904
sg24
g4
(g8
S'\x18\x0e\xbcN\xd9rK@'
p39
tp40
Rp41
ssS'tire-1.cnf'
p42
(dp43
g3
g4
(g8
S'|b\xd4\x0b\xc8B\x8f?'
p44
tp45
Rp46
sg14
g15
(S'20.40366757860640219747606596'
p47
tp48
Rp49
sg19
g4
(g8
S'b#>\xb1\xb7\xab`@'
p50
tp51
Rp52
sg23
F32.873095944336356
sg24
g4
(g8
S'\x19 5\x1f\xa70A@'
p53
tp54
Rp55
ssS'log-1.cnf'
p56
(dp57
g3
g4
(g8
S'\xd7\xfc\x8e\xa3:\x8b\xd6?'
p58
tp59
Rp60
sg14
g15
(S'47.78185814456179880189729527'
p61
tp62
Rp63
sg19
g4
(g8
S'\xfdgIH;\xefr@'
p64
tp65
Rp66
sg23
F55.986467956796034
sg24
g4
(g8
S'A\xa2\x03\xfd2bU@'
p67
tp68
Rp69
ssS'tire-4.cnf'
p70
(dp71
g3
g4
(g8
S'5\xbc\x04\xd3\xcf\xf8\xc1?'
p72
tp73
Rp74
sg14
g15
(S'32.26760906093560147581645240'
p75
tp76
Rp77
sg19
g4
(g8
S'EAv\x13\x00\xfao@'
p78
tp79
Rp80
sg23
F36.186689197809706
sg24
g4
(g8
S'\x08\xda:\xdbp\xb4P@'
p81
tp82
Rp83
ssS'log-3.cnf'
p84
(dp85
g3
g4
(g8
S'\x12gv\xaa\x99\xaa\xc1?'
p86
tp87
Rp88
sg14
g15
(S'26.35754624642712697549596379'
p89
tp90
Rp91
sg19
g4
(g8
S'\x90\xe3\xdf\xe6\x0e\x05p@'
p92
tp93
Rp94
sg23
F67.3278845962173
sg24
g4
(g8
S"%'\x93\xc6\x13\xea>@"
p95
tp96
Rp97
ssS'tire-3.cnf'
p98
(dp99
g3
g4
(g8
S'\xbe\xfb2w\x91\xa5\x9e?'
p100
tp101
Rp102
sg14
g15
(S'26.12846440361733772531178430'
p103
tp104
Rp105
sg19
g4
(g8
S'#\x99\x105\xa7\xaag@'
p106
tp107
Rp108
sg23
F42.168567028365615
sg24
g4
(g8
S'\xa6\xf4\xed"n8G@'
p109
tp110
Rp111
ssS'c1355.isc'
p112
(dp113
g3
g4
(g8
S'\x9b/\x05\xa7~\xb6\xec?'
p114
tp115
Rp116
sg14
g15
(S'28.41903440295775768610651698'
p117
tp118
Rp119
sg19
g4
(g8
S'\xa4\xc0z\xa9\nOm@'
p120
tp121
Rp122
sg23
F112.61573405640388
sg24
g4
(g8
S'q\xd0\x0b\xe5\xc0\xb0T@'
p123
tp124
Rp125
ssS'sat-grid-pbl-0015.cnf'
p126
(dp127
g3
g4
(g8
S'\xc7\xa8\xe3\xc2\x00d"@'
p128
tp129
Rp130
sg14
g15
(S'125.4425195006362289639072410'
p131
tp132
Rp133
sg19
g4
(g8
S'k\xc1H\x08:dd@'
p134
tp135
Rp136
sg23
F143.0491297968339
sg24
g4
(g8
S',\xf8\x9cv$\x15^@'
p137
tp138
Rp139
ssS'sat-grid-pbl-0025.cnf'
p140
(dp141
g3
g4
(g8
S'A\x11v\xe0\xacMA@'
p142
tp143
Rp144
sg14
g15
(S'348.2810069124694245655975633'
p145
tp146
Rp147
sg19
g4
(g8
S'\xe1\xc8\xe3\x17\xbd\x87{@'
p148
tp149
Rp150
sg23
F392.38365511904465
sg24
g4
(g8
S'\xee\x90\x00\xc6\xbd\xa4u@'
p151
tp152
Rp153
ssS'c499.isc'
p154
(dp155
g3
g4
(g8
S'\x00\xb25\x86\xe0\xc0\xf4?'
p156
tp157
Rp158
sg14
g15
(S'28.41903440295775768610651698'
p159
tp160
Rp161
sg19
g4
(g8
S"\xb8'+\x14\x8e\xdf`@"
p162
tp163
Rp164
sg23
F71.49668019901706
sg24
g4
(g8
S'\x14\xe1\x98\x82\xddmN@'
p165
tp166
Rp167
ssS'c432.isc'
p168
(dp169
g3
g4
(g8
S'\xf0\x8f\x91\xcb\xe0l\xda?'
p170
tp171
Rp172
sg14
g15
(S'24.95329850015803113902035637'
p173
tp174
Rp175
sg19
g4
(g8
S'\\\xdf\xa0S\xb6\xe7Y@'
p176
tp177
Rp178
sg23
F64.94726787098936
sg24
g4
(g8
S'\xaa!\x11\xefi=D@'
p179
tp180
Rp181
ssS'c880.isc'
p182
(dp183
g3
g4
(g8
S'\x9f\x11\xca,\xda\x86\xfb?'
p184
tp185
Rp186
sg14
g15
(S'41.58883083359671856503392729'
p187
tp188
Rp189
sg19
g4
(g8
S'Y\x92*3\x8d\xf2i@'
p190
tp191
Rp192
sg23
F85.72545898291035
sg24
g4
(g8
S'(\x8b\xff\x08\xec\xbaU@'
p193
tp194
Rp195
ssS'c1908.isc'
p196
(dp197
g3
g4
(g8
S'KW\xbc\x9d\xd1w\xe3?'
p198
tp199
Rp200
sg14
g15
(S'22.87385695847819521076866001'
p201
tp202
Rp203
sg19
g4
(g8
S'./\xf5J\xb6=q@'
p204
tp205
Rp206
sg23
F96.88624953677092
sg24
g4
(g8
S'(\x8b\xff\x08\xec\xbaU@'
p207
tp208
Rp209
ssS'sat-grid-pbl-0020.cnf'
p210
(dp211
g3
g4
(g8
S'\xd4\xdc\nUV\xfd2@'
p212
tp213
Rp214
sg14
g15
(S'220.3660190724091582010586847'
p215
tp216
Rp217
sg19
g4
(g8
S'\x07\xc3\x1f\x90\x93\xbeq@'
p218
tp219
Rp220
sg23
F236.7117061013319
sg24
g4
(g8
S'\xdej\xc3\xd2%\xd3j@'
p221
tp222
Rp223
ssS'rb.cnf'
p224
(dp225
g3
g4
(g8
S'\x83\xa2\n\x13\x14\xe5S@'
p226
tp227
Rp228
sg14
g15
(S'855.9432668896412104221506170'
p229
tp230
Rp231
sg19
g4
(g8
S'[\x13\xdaM\xbe\xa4\x92@'
p232
tp233
Rp234
sg23
F907.0122478672411
sg24
g4
(g8
S'\x1f\xdf\xc5\xfe\xe9\x9d\x8a@'
p235
tp236
Rp237
ssS'c2670.isc'
p238
(dp239
g3
g4
(g8
S'\xec\xff\xa8E[\x19\x1d@'
p240
tp241
Rp242
sg14
g15
(S'161.5032930704672570942150843'
p243
tp244
Rp245
sg19
g4
(g8
S'\xe3\xa1\xa3\xba\x0f\x99\x81@'
p246
tp247
Rp248
sg23
F320.8957601897353
sg24
g4
(g8
S'N\x84\x91\xfe\x90\ro@'
p249
tp250
Rp251
ssS'ra.cnf'
p252
(dp253
g3
g4
(g8
S'\xb9Y\xd6\xdb\x1f\xddN@'
p254
tp255
Rp256
sg14
g15
(S'659.1673732008658148371471422'
p257
tp258
Rp259
sg19
g4
(g8
S'FWa^E\x9e\x89@'
p260
tp261
Rp262
sg23
F688.2316868838059
sg24
g4
(g8
S'\xef\xa9\x9b\xd6\xf3X\x83@'
p263
tp264
Rp265
ssS'log-2.cnf'
p266
(dp267
g3
g4
(g8
S'\xdb\xb1s6\x99\xdb\x98?'
p268
tp269
Rp270
sg14
g15
(S'24.19940808387429746877865551'
p271
tp272
Rp273
sg19
g4
(g8
S'\xfe\x0e<\xf2n\x88q@'
p274
tp275
Rp276
sg23
F91.01297746490275
sg24
g4
(g8
S'|\x97\xef\xea\xf0\x14G@'
p277
tp278
Rp279
ssS'sat-grid-pbl-0030.cnf'
p280
(dp281
g3
g4
(g8
S'\xe6\xde\xf8\xa1\x9f\xf2H@'
p282
tp283
Rp284
sg14
g15
(S'502.3959132375194767325914187'
p285
tp286
Rp287
sg19
g4
(g8
S'\xd7G\xe5\x9dm\x8d\x83@'
p288
tp289
Rp290
sg23
F513.3240985499474
sg24
g4
(g8
S'\x04D\x98w,{~@'
p291
tp292
Rp293
ssS'tire-2.cnf'
p294
(dp295
g3
g4
(g8
S'\x9a\xef\x0b\xc5D\xaa\x99?'
p296
tp297
Rp298
sg14
g15
(S'27.32852267575170047911478367'
p299
tp300
Rp301
sg19
g4
(g8
S'p\x14\x99jT\xcbf@'
p302
tp303
Rp304
sg23
F54.824325517839874
sg24
g4
(g8
S'\x19\x97\xf86\xc0QF@'
p305
tp306
Rp307
ssI5
I5
tp308
.