((dp0
S'log-4.cnf'
p1
(dp2
S'gumb_compute_time'
p3
(lp4
F0.0
asS'exact_log_Z'
p5
(lp6
cdecimal
Decimal
p7
(S'94.24182076713446859011815549'
p8
tp9
Rp10
asS'gumbel_expectation_UB'
p11
(lp12
F0.0
asS'massart_gumbelPerturb_LB_lambda'
p13
(lp14
F0.01
asS'barv_high_prob_UB'
p15
(lp16
cnumpy.core.multiarray
scalar
p17
(cnumpy
dtype
p18
(S'f8'
p19
I0
I1
tp20
Rp21
(I3
S'<'
p22
NNNI-1
I-1
I0
tp23
bS'\xf2\xab\xda\x87\\/\x90@'
p24
tp25
Rp26
asS'barv_compute_time'
p27
(lp28
F2.674164056777954
asS'delta_k_gumbel_perturb'
p29
(lp30
g17
(g21
S'U\xde\xdb\xd34\xe3b@'
p31
tp32
Rp33
asS'barv_expectation_LB'
p34
(lp35
g17
(g21
S'\xca\x16\xcd5\xe4\x05\x01@'
p36
tp37
Rp38
asS'gumbel_expectation_LB'
p39
(lp40
F0.0
asS'massart_gumbelPerturb_LB_lambda_expectation_est'
p41
F0.1
sS'epsilon_g'
p42
(lp43
g17
(g21
S'\xd7E\x99\x063c]@'
p44
tp45
Rp46
asS'gumbel_high_prob_UB'
p47
(lp48
F0.0
asS'massart_gumbelPerturb_LB_expectation_est'
p49
F1.5155102233243394
sS'barv_expectation_UB'
p50
(lp51
g17
(g21
S'\x8bi\xa8tTi\x82@'
p52
tp53
Rp54
asS'barv_estimator'
p55
(lp56
g17
(g21
S'\x00\x00\x00\x00\x00\xc0X@'
p57
tp58
Rp59
asS'gumbel_high_prob_LB'
p60
(lp61
F0.0
asS'barv_high_prob_LB'
p62
(lp63
g17
(g21
S'\xb2\x19\xf0\x88\x05 \xb3?'
p64
tp65
Rp66
asS'massart_gumbelPerturb_LB'
p67
(lp68
g17
(g21
S'\xa4>6\xe2\xea\xee\xc9?'
p69
tp70
Rp71
assS'sat-grid-pbl-0010.cnf'
p72
(dp73
g3
(lp74
F9.5367431640625e-07
asg5
(lp75
g7
(S'78.97471862885066913762932347'
p76
tp77
Rp78
asg11
(lp79
F0.0
asg13
(lp80
F0.5
asg15
(lp81
g17
(g21
S'\xff\xff\xff\xff\xff\x7f[@'
p82
tp83
Rp84
asg27
(lp85
F0.011489152908325195
asg29
(lp86
g17
(g21
S'l\x93 \xdf\x0f\xaaZ@'
p87
tp88
Rp89
asg34
(lp90
g17
(g21
S'\xe4)A\x9e\x12\xe48@'
p91
tp92
Rp93
asg39
(lp94
F0.0
asg41
F0.5
sg42
(lp95
g17
(g21
S'\xce\xc2\x15S\xc2\xb09@'
p96
tp97
Rp98
asg47
(lp99
F0.0
asg49
F34.15374745039262
sg50
(lp100
g17
(g21
S'\xff\xff\xff\xff\xff\x7f[@'
p101
tp102
Rp103
asg55
(lp104
g17
(g21
S'\x00\x00\x00\x00\x00\x80R@'
p105
tp106
Rp107
asg60
(lp108
F0.0
asg62
(lp109
g17
(g21
S'\xf0\xeb\x15Aj7%@'
p110
tp111
Rp112
asg67
(lp113
g17
(g21
S'2f\xa4\xd4\xfaN5@'
p114
tp115
Rp116
assS'tire-1.cnf'
p117
(dp118
g3
(lp119
F0.0
asg5
(lp120
g7
(S'29.43627003160238041586099203'
p121
tp122
Rp123
asg11
(lp124
F0.0
asg13
(lp125
F0.01
asg15
(lp126
g17
(g21
S'\xf1\xbb\x97\xf2\xa7\x90s@'
p127
tp128
Rp129
asg27
(lp130
F0.03181004524230957
asg29
(lp131
g17
(g21
S'f{\xaa1>\\A@'
p132
tp133
Rp134
asg34
(lp135
g17
(g21
S'\x17]t\xd1E\xd7\x15@'
p136
tp137
Rp138
asg39
(lp139
F0.0
asg41
F0.1
sg42
(lp140
g17
(g21
S'\xf0\xd0b\xa1n\xfaF@'
p141
tp142
Rp143
asg47
(lp144
F0.0
asg49
F1.394223986949374
sg50
(lp145
g17
(g21
S'\xeezc\x1d[\x8cm@'
p146
tp147
Rp148
asg55
(lp149
g17
(g21
S'\x00\x00\x00\x00\x00\x00O@'
p150
tp151
Rp152
asg60
(lp153
F0.0
asg62
(lp154
g17
(g21
S'\xad\xb0z\xc9Af\xd7?'
p155
tp156
Rp157
asg67
(lp158
g17
(g21
S'r\t2J_\xfb\xc0\xbf'
p159
tp160
Rp161
assS'log-1.cnf'
p162
(dp163
g3
(lp164
F0.0
asg5
(lp165
g7
(S'68.93464978961923353115339571'
p166
tp167
Rp168
asg11
(lp169
F0.0
asg13
(lp170
F0.1
asg15
(lp171
g17
(g21
S'\\\xe5\xbb\x97\xd6/\x83@'
p172
tp173
Rp174
asg27
(lp175
F0.05953788757324219
asg29
(lp176
g17
(g21
S'\x99A\xc6{u&a@'
p177
tp178
Rp179
asg34
(lp180
g17
(g21
S'\xfaM\xa6\xda\x9aX\r@'
p181
tp182
Rp183
asg39
(lp184
F0.0
asg41
F0.1
sg42
(lp185
g17
(g21
S'B;\xa8\xa5\xd6\xc3R@'
p186
tp187
Rp188
asg47
(lp189
F0.0
asg49
F8.177307634797433
sg50
(lp190
g17
(g21
S'\xafG<\x1a\x89Ly@'
p191
tp192
Rp193
asg55
(lp194
g17
(g21
S'\x00\x00\x00\x00\x00\xc0T@'
p195
tp196
Rp197
asg60
(lp198
F0.0
asg62
(lp199
g17
(g21
S'\xdd\xacy\xb8\r0\xa1?'
p200
tp201
Rp202
asg67
(lp203
g17
(g21
S' 1\x96-_{\xe5?'
p204
tp205
Rp206
assS'c2670.isc'
p207
(dp208
g3
(lp209
F0.0
asg5
(lp210
g7
(S'233.0000000000000000000000000'
p211
tp212
Rp213
asg11
(lp214
F0.0
asg13
(lp215
F0.25
asg15
(lp216
g17
(g21
S'\xfa\x91r\\\xbfY\x92@'
p217
tp218
Rp219
asg27
(lp220
F4.00059700012207
asg29
(lp221
g17
(g21
S'E\xaf\xa8\x00(\xb4{@'
p222
tp223
Rp224
asg34
(lp225
g17
(g21
S'\xbcd\xc2K&\xbcL@'
p226
tp227
Rp228
asg39
(lp229
F0.0
asg41
F0.25
sg42
(lp230
g17
(g21
S'\xb9 \xf1\x14\x0bzU@'
p231
tp232
Rp233
asg47
(lp234
F0.0
asg49
F62.79561270199182
sg50
(lp235
g17
(g21
S'%\x91D\xff\xa1\x11\x91@'
p236
tp237
Rp238
asg55
(lp239
g17
(g21
S'\x00\x00\x00\x00\x00\x80w@'
p240
tp241
Rp242
asg60
(lp243
F0.0
asg62
(lp244
g17
(g21
S'\xb7\xb67\x88\xbe\x1aA@'
p245
tp246
Rp247
asg67
(lp248
g17
(g21
S'\xc9\x1a\x9b\x18\xd1\xa8D@'
p249
tp250
Rp251
assS'log-3.cnf'
p252
(dp253
g3
(lp254
F0.0
asg5
(lp255
g7
(S'38.02590125972192792986888030'
p256
tp257
Rp258
asg11
(lp259
F0.0
asg13
(lp260
F0.01
asg15
(lp261
g17
(g21
S'\xc8\x08\xe5\x1alS\x8b@'
p262
tp263
Rp264
asg27
(lp265
F2.6236629486083984
asg29
(lp266
g17
(g21
S'@\x00\x96\x8e\xads6@'
p267
tp268
Rp269
asg34
(lp270
g17
(g21
S'\x80Yjq\xb6\x1d\x16@'
p271
tp272
Rp273
asg39
(lp274
F0.0
asg41
F0.01
sg42
(lp275
g17
(g21
S'\xd9\x0e\xf8\x17\xde\x04W@'
p276
tp277
Rp278
asg47
(lp279
F0.0
asg49
F0.14297917726077006
sg50
(lp280
g17
(g21
S'\x1ab\xa6a\xac\x0b\x83@'
p281
tp282
Rp283
asg55
(lp284
g17
(g21
S'\x00\x00\x00\x00\x00@_@'
p285
tp286
Rp287
asg60
(lp288
F0.0
asg62
(lp289
g17
(g21
S'\x89\x17\xa6\xdc\x82\x8c\xd8?'
p290
tp291
Rp292
asg67
(lp293
g17
(g21
S'\x01\x11\xb5\xc5\x95\xe3\xe8\xbf'
p294
tp295
Rp296
assS'tire-3.cnf'
p297
(dp298
g3
(lp299
F0.0
asg5
(lp300
g7
(S'37.69540602114253993963436454'
p301
tp302
Rp303
asg11
(lp304
F0.0
asg13
(lp305
F0.01
asg15
(lp306
g17
(g21
S'\x8c\x7f\xd5\xae\x83>t@'
p307
tp308
Rp309
asg27
(lp310
F0.04640913009643555
asg29
(lp311
g17
(g21
S'\x8d\x1dE\x13\xa4\xfcN@'
p312
tp313
Rp314
asg34
(lp315
g17
(g21
S'Z\xf5\x17J\x19\x07\xd0?'
p316
tp317
Rp318
asg39
(lp319
F0.0
asg41
F0.1
sg42
(lp320
g17
(g21
S'\xaa\x93\xc6\x93\\kM@'
p321
tp322
Rp323
asg47
(lp324
F0.0
asg49
F2.7913696107949444
sg50
(lp325
g17
(g21
S'o\xee\xdby\xbd\xa6[@'
p326
tp327
Rp328
asg55
(lp329
g17
(g21
S'\x00\x00\x00\x00\x00\x001@'
p330
tp331
Rp332
asg60
(lp333
F0.0
asg62
(lp334
g17
(g21
S'5>\xfaF&E\xf8?'
p335
tp336
Rp337
asg67
(lp338
g17
(g21
S'\x006\x03\x14o\xe5_\xbf'
p339
tp340
Rp341
assS'c1355.isc'
p342
(dp343
g3
(lp344
F0.0
asg5
(lp345
g7
(S'41.00000000000000000000000000'
p346
tp347
Rp348
asg11
(lp349
F0.0
asg13
(lp350
F0.1
asg15
(lp351
g17
(g21
S'x\x97\x15\xa3E\xb5\x7f@'
p352
tp353
Rp354
asg27
(lp355
F0.9046080112457275
asg29
(lp356
g17
(g21
S'7\xbc\xd2\xa2\x8cTb@'
p357
tp358
Rp359
asg34
(lp360
g17
(g21
S"s\x12\x88\x0b5',@"
p361
tp362
Rp363
asg39
(lp364
F0.0
asg41
F0.25
sg42
(lp365
g17
(g21
S'.Q\xde1c\xdaL@'
p366
tp367
Rp368
asg47
(lp369
F0.0
asg49
F14.993283726214543
sg50
(lp370
g17
(g21
S',i\x8c\xbe\xff\xb1z@'
p371
tp372
Rp373
asg55
(lp374
g17
(g21
S'\x00\x00\x00\x00\x00@_@'
p375
tp376
Rp377
asg60
(lp378
F0.0
asg62
(lp379
g17
(g21
S'\xd4H_\xaf\x9bQ\x10@'
p380
tp381
Rp382
asg67
(lp383
g17
(g21
S'X+\xf2\x8eGx\x16@'
p384
tp385
Rp386
assS'sat-grid-pbl-0015.cnf'
p387
(dp388
g3
(lp389
F9.5367431640625e-07
asg5
(lp390
g7
(S'180.9753008001849739336326952'
p391
tp392
Rp393
asg11
(lp394
F0.0
asg13
(lp395
F0.5
asg15
(lp396
g17
(g21
S'\x00\x00\x00\x00\x00\x00n@'
p397
tp398
Rp399
asg27
(lp400
F0.01694202423095703
asg29
(lp401
g17
(g21
S'\x0365\\`\rg@'
p402
tp403
Rp404
asg34
(lp405
g17
(g21
S'\x9a\x99\x99\x99\x99\x89O@'
p406
tp407
Rp408
asg39
(lp409
F0.0
asg41
F0.5
sg42
(lp410
g17
(g21
S'~\xc4#,B\xf9B@'
p411
tp412
Rp413
asg47
(lp414
F0.0
asg49
F50.3729440053492
sg50
(lp415
g17
(g21
S'\x00\x00\x00\x00\x00\x00n@'
p416
tp417
Rp418
asg55
(lp419
g17
(g21
S'\x00\x00\x00\x00\x00\xc0e@'
p420
tp421
Rp422
asg60
(lp423
F0.0
asg62
(lp424
g17
(g21
S'\xf0w\xccl\x16HC@'
p425
tp426
Rp427
asg67
(lp428
g17
(g21
S'Pr\xfe\x157f?@'
p429
tp430
Rp431
assS'sat-grid-pbl-0025.cnf'
p432
(dp433
g3
(lp434
F0.0
asg5
(lp435
g7
(S'502.4632815084344235960960599'
p436
tp437
Rp438
asg11
(lp439
F0.0
asg13
(lp440
F0.5
asg15
(lp441
g17
(g21
S'\x00\x00\x00\x00\x00P\x84@'
p442
tp443
Rp444
asg27
(lp445
F0.07218599319458008
asg29
(lp446
g17
(g21
S'U\x94\xa0\xff8e\x80@'
p447
tp448
Rp449
asg34
(lp450
g17
(g21
S'\xd8\xa3p=\nwg@'
p451
tp452
Rp453
asg39
(lp454
F0.0
asg41
F0.5
sg42
(lp455
g17
(g21
S'l\x88\xb1\xf1\x989O@'
p456
tp457
Rp458
asg47
(lp459
F0.0
asg49
F149.020413452173
sg50
(lp460
g17
(g21
S'\x00\x00\x00\x00\x00P\x84@'
p461
tp462
Rp463
asg55
(lp464
g17
(g21
S'\x00\x00\x00\x00\x00\xe0~@'
p465
tp466
Rp467
asg60
(lp468
F0.0
asg62
(lp469
g17
(g21
S'\xccD\x1e\xa9A\xe8a@'
p470
tp471
Rp472
asg67
(lp473
g17
(g21
S'\xb4\xfc\xcc7\xe8r]@'
p474
tp475
Rp476
assS'c499.isc'
p477
(dp478
g3
(lp479
F0.0
asg5
(lp480
g7
(S'41.00000000000000000000000000'
p481
tp482
Rp483
asg11
(lp484
F0.0
asg13
(lp485
F0.25
asg15
(lp486
g17
(g21
S'\x00\x00\x00\x00\x00`n@'
p487
tp488
Rp489
asg27
(lp490
F0.2770218849182129
asg29
(lp491
g17
(g21
S'c+\xdb\xd4\xae;X@'
p492
tp493
Rp494
asg34
(lp495
g17
(g21
S'\x12\x15d\x1b\x02\n1@'
p496
tp497
Rp498
asg39
(lp499
F0.0
asg41
F0.25
sg42
(lp500
g17
(g21
S'uZ{\xa6\x85\x17C@'
p501
tp502
Rp503
asg47
(lp504
F0.0
asg49
F14.746391008535333
sg50
(lp505
g17
(g21
S'\xe3\x08\x11\x80\xb9\xfal@'
p506
tp507
Rp508
asg55
(lp509
g17
(g21
S'\x00\x00\x00\x00\x00\xc0V@'
p510
tp511
Rp512
asg60
(lp513
F0.0
asg62
(lp514
g17
(g21
S';D\xb2x\x94\xf5\x16@'
p515
tp516
Rp517
asg67
(lp518
g17
(g21
S'N\x0b\xb8\x9fB\xcd\x14@'
p519
tp520
Rp521
assS'c432.isc'
p522
(dp523
g3
(lp524
F0.0
asg5
(lp525
g7
(S'35.99999999999999999999999999'
p526
tp527
Rp528
asg11
(lp529
F0.0
asg13
(lp530
F0.25
asg15
(lp531
g17
(g21
S' \tY\xbc\xa5ph@'
p532
tp533
Rp534
asg27
(lp535
F0.03977203369140625
asg29
(lp536
g17
(g21
S'\xde\x93\x18\x0cz"T@'
p537
tp538
Rp539
asg34
(lp540
g17
(g21
S'\n^N\xc1\xcb)!@'
p541
tp542
Rp543
asg39
(lp544
F0.0
asg41
F0.25
sg42
(lp545
g17
(g21
S'\t\xfd\x87Q|%A@'
p546
tp547
Rp548
asg47
(lp549
F0.0
asg49
F12.482814259238769
sg50
(lp550
g17
(g21
S';\x98\x8d\xac\xcdwe@'
p551
tp552
Rp553
asg55
(lp554
g17
(g21
S'\x00\x00\x00\x00\x00\x00M@'
p555
tp556
Rp557
asg60
(lp558
F0.0
asg62
(lp559
g17
(g21
S'\x88&\xde?\xa0\xf0\xf6?'
p560
tp561
Rp562
asg67
(lp563
g17
(g21
S'\x82\xd4\xcbr\xdcF\x0f@'
p564
tp565
Rp566
assS'c880.isc'
p567
(dp568
g3
(lp569
F0.0
asg5
(lp570
g7
(S'6E+1'
p571
tp572
Rp573
asg11
(lp574
F0.0
asg13
(lp575
F0.25
asg15
(lp576
g17
(g21
S'\xe5l\xd0!(=y@'
p577
tp578
Rp579
asg27
(lp580
F0.49745893478393555
asg29
(lp581
g17
(g21
S'\x11Fn\x7f\x0c1b@'
p582
tp583
Rp584
asg34
(lp585
g17
(g21
S'h\xf7M\xe1\xf1\xb6/@'
p586
tp587
Rp588
asg39
(lp589
F0.0
asg41
F0.25
sg42
(lp590
g17
(g21
S'\xadu\x9e:\x8f\x02I@'
p591
tp592
Rp593
asg47
(lp594
F0.0
asg49
F20.103470214724144
sg50
(lp595
g17
(g21
S'&\x0b\x80p\xc5$v@'
p596
tp597
Rp598
asg55
(lp599
g17
(g21
S'\x00\x00\x00\x00\x00\xc0\\@'
p600
tp601
Rp602
asg60
(lp603
F0.0
asg62
(lp604
g17
(g21
S'\xf4\xce8\xbaV@\x14@'
p605
tp606
Rp607
asg67
(lp608
g17
(g21
S'\\{T\xa3\xd5d\x1e@'
p609
tp610
Rp611
assS'ra.cnf'
p612
(dp613
g3
(lp614
F0.0
asg5
(lp615
g7
(S'950.9775004326937088722433664'
p616
tp617
Rp618
asg11
(lp619
F0.0
asg13
(lp620
F0.5
asg15
(lp621
g17
(g21
S'\x00\x00\x00\x00\x00P\x93@'
p622
tp623
Rp624
asg27
(lp625
F0.13440203666687012
asg29
(lp626
g17
(g21
S'G|1sa-\x8d@'
p627
tp628
Rp629
asg34
(lp630
g17
(g21
S'\x94\xb9\xa0\x06\x18Wv@'
p631
tp632
Rp633
asg39
(lp634
F0.0
asg41
F0.5
sg42
(lp635
g17
(g21
S'\xd1)\x80\xd4o\x87U@'
p636
tp637
Rp638
asg47
(lp639
F0.0
asg49
F251.38057037587822
sg50
(lp640
g17
(g21
S'\x00\x00\x00\x00\x00P\x93@'
p641
tp642
Rp643
asg55
(lp644
g17
(g21
S'\x00\x00\x00\x00\x00`\x8d@'
p645
tp646
Rp647
asg60
(lp648
F0.0
asg62
(lp649
g17
(g21
S'\xe1\xf8\x02\x185or@'
p650
tp651
Rp652
asg67
(lp653
g17
(g21
S'\xb2\xbc\xcc\xacQ\nj@'
p654
tp655
Rp656
assS'sat-grid-pbl-0020.cnf'
p657
(dp658
g3
(lp659
F0.0
asg5
(lp660
g7
(S'317.9209628962074205681936812'
p661
tp662
Rp663
asg11
(lp664
F0.0
asg13
(lp665
F0.5
asg15
(lp666
g17
(g21
S'\x00\x00\x00\x00\x00@z@'
p667
tp668
Rp669
asg27
(lp670
F0.03651690483093262
asg29
(lp671
g17
(g21
S'\x1bT\xa9JT\xe7u@'
p672
tp673
Rp674
asg34
(lp675
g17
(g21
S'\x9e\xe7y\x9e\xe7\x99\\@'
p676
tp677
Rp678
asg39
(lp679
F0.0
asg41
F0.5
sg42
(lp680
g17
(g21
S'\xc8\x07\x83\x8b\x8c\x19I@'
p681
tp682
Rp683
asg47
(lp684
F0.0
asg49
F102.01593038859451
sg50
(lp685
g17
(g21
S'\x00\x00\x00\x00\x00@z@'
p686
tp687
Rp688
asg55
(lp689
g17
(g21
S'\x00\x00\x00\x00\x00`s@'
p690
tp691
Rp692
asg60
(lp693
F0.0
asg62
(lp694
g17
(g21
S'jO::\x92\x16T@'
p695
tp696
Rp697
asg67
(lp698
g17
(g21
S'\xb8\xbf\x03\xde\xa1:S@'
p699
tp700
Rp701
assS'rb.cnf'
p702
(dp703
g3
(lp704
F0.0
asg5
(lp705
g7
(S'1234.865106423983844696633852'
p706
tp707
Rp708
asg11
(lp709
F0.0
asg13
(lp710
F0.5
asg15
(lp711
g17
(g21
S'\x00\x00\x00\x00\x00\xf8\x9c@'
p712
tp713
Rp714
asg27
(lp715
F0.16843509674072266
asg29
(lp716
g17
(g21
S'/ZI\xccL\xfc\x93@'
p717
tp718
Rp719
asg34
(lp720
g17
(g21
S'\xb2F\x00\xa1\xa7/{@'
p721
tp722
Rp723
asg39
(lp724
F0.0
asg41
F0.5
sg42
(lp725
g17
(g21
S'\xc6\x05\xb1\x9f\x1a^Z@'
p726
tp727
Rp728
asg47
(lp729
F0.0
asg49
F316.35391733817687
sg50
(lp730
g17
(g21
S'\x00\x00\x00\x00\x00\xf8\x9c@'
p731
tp732
Rp733
asg55
(lp734
g17
(g21
S'\x00\x00\x00\x00\x00\xd8\x93@'
p735
tp736
Rp737
asg60
(lp738
F0.0
asg62
(lp739
g17
(g21
S'\xfd\xc3L\xbd\xb0\xdbv@'
p740
tp741
Rp742
asg67
(lp743
g17
(g21
S'\x98\xeeCQ\xe6yp@'
p744
tp745
Rp746
assS'c1908.isc'
p747
(dp748
g3
(lp749
F0.0
asg5
(lp750
g7
(S'33.00000000000000000000000000'
p751
tp752
Rp753
asg11
(lp754
F0.0
asg13
(lp755
F0.1
asg15
(lp756
g17
(g21
S'$\x9f\r6\xe7\xa0\x83@'
p757
tp758
Rp759
asg27
(lp760
F1.8616559505462646
asg29
(lp761
g17
(g21
S'\xa9\xe0\x9f{\xf0\xc3b@'
p762
tp763
Rp764
asg34
(lp765
g17
(g21
S"D\x1bP;\xce\x8d'@"
p766
tp767
Rp768
asg39
(lp769
F0.0
asg41
F0.1
sg42
(lp770
g17
(g21
S'\xbd\xe5\\\x9a\x1c\xc8P@'
p771
tp772
Rp773
asg47
(lp774
F0.0
asg49
F10.57918998184104
sg50
(lp775
g17
(g21
S'\xa6\x83\x86"\x01\x9f\x7f@'
p776
tp777
Rp778
asg55
(lp779
g17
(g21
S'\x00\x00\x00\x00\x00\xa0`@'
p780
tp781
Rp782
asg60
(lp783
F0.0
asg62
(lp784
g17
(g21
S't\x1a)\xb1\xae\x1c\x07@'
p785
tp786
Rp787
asg67
(lp788
g17
(g21
S'\x94\x8d\xae\xa0\x9f\xee\x0e@'
p789
tp790
Rp791
assS'tire-4.cnf'
p792
(dp793
g3
(lp794
F1.1920928955078125e-06
asg5
(lp795
g7
(S'46.55231957355557370674436762'
p796
tp797
Rp798
asg11
(lp799
F0.0
asg13
(lp800
F0.01
asg15
(lp801
g17
(g21
S"\x82\xbbe \xbd'\x82@"
p802
tp803
Rp804
asg27
(lp805
F0.051290035247802734
asg29
(lp806
g17
(g21
S'\xff\x04/\x86E\xb9K@'
p807
tp808
Rp809
asg34
(lp810
g17
(g21
S'\xccZ(\xa0c\xf3\x13@'
p811
tp812
Rp813
asg39
(lp814
F0.0
asg41
F0.1
sg42
(lp815
g17
(g21
S"\x9e'd\x81.sQ@"
p816
tp817
Rp818
asg47
(lp819
F0.0
asg49
F0.7515424519951148
sg50
(lp820
g17
(g21
S'\xaf\x0e\xe6\x93\xa8\x7fy@'
p821
tp822
Rp823
asg55
(lp824
g17
(g21
S'\x00\x00\x00\x00\x00\x80V@'
p825
tp826
Rp827
asg60
(lp828
F0.0
asg62
(lp829
g17
(g21
S'(K\xbb\x9a\xb2\x14\xd0?'
p830
tp831
Rp832
asg67
(lp833
g17
(g21
S'\xdc\xef\xae$d^\xc8\xbf'
p834
tp835
Rp836
assS'tire-2.cnf'
p837
(dp838
g3
(lp839
F0.0
asg5
(lp840
g7
(S'39.42672413912856318873371974'
p841
tp842
Rp843
asg11
(lp844
F0.0
asg13
(lp845
F0.01
asg15
(lp846
g17
(g21
S'd\xd80\x90\x91E{@'
p847
tp848
Rp849
asg27
(lp850
F0.03167009353637695
asg29
(lp851
g17
(g21
S'|\xd8\xa4F\x9f\x1cI@'
p852
tp853
Rp854
asg34
(lp855
g17
(g21
S'\xea\x87\x9a~\xa8\xe9\x13@'
p856
tp857
Rp858
asg39
(lp859
F0.0
asg41
F0.1
sg42
(lp860
g17
(g21
S',\x85\xbbI\n\xb9L@'
p861
tp862
Rp863
asg47
(lp864
F0.0
asg49
F1.775734799603426
sg50
(lp865
g17
(g21
S'B\x96\x0c\x02\x02\x96s@'
p866
tp867
Rp868
asg55
(lp869
g17
(g21
S'\x00\x00\x00\x00\x00\x80R@'
p870
tp871
Rp872
asg60
(lp873
F0.0
asg62
(lp874
g17
(g21
S'\x14\xfa\xfc\x92\x9e\xe3\xcf?'
p875
tp876
Rp877
asg67
(lp878
g17
(g21
S'\x10D\xa2x\x0b\x9d\xba\xbf'
p879
tp880
Rp881
assS'sat-grid-pbl-0030.cnf'
p882
(dp883
g3
(lp884
F0.0
asg5
(lp885
g7
(S'724.8040925906512738608314491'
p886
tp887
Rp888
asg11
(lp889
F0.0
asg13
(lp890
F0.5
asg15
(lp891
g17
(g21
S'\x01\x00\x00\x00\x00\x10\x8d@'
p892
tp893
Rp894
asg27
(lp895
F0.0951998233795166
asg29
(lp896
g17
(g21
S'\xf4 \xb6\xf0\x84\xdb\x86@'
p897
tp898
Rp899
asg34
(lp900
g17
(g21
S'\xe0{\xef\xbd\xf7\xfeo@'
p901
tp902
Rp903
asg39
(lp904
F0.0
asg41
F0.5
sg42
(lp905
g17
(g21
S'\x8a\xc4\x19\xee\xc2\xacR@'
p906
tp907
Rp908
asg47
(lp909
F0.0
asg49
F203.6052145021662
sg50
(lp910
g17
(g21
S'\x01\x00\x00\x00\x00\x10\x8d@'
p911
tp912
Rp913
asg55
(lp914
g17
(g21
S'\x00\x00\x00\x00\x00\x90\x85@'
p915
tp916
Rp917
asg60
(lp918
F0.0
asg62
(lp919
g17
(g21
S'\xcd\rj\x9fuqi@'
p920
tp921
Rp922
asg67
(lp923
g17
(g21
S'\xabJG/-\xc8d@'
p924
tp925
Rp926
assS'log-2.cnf'
p927
(dp928
g3
(lp929
F0.0
asg5
(lp930
g7
(S'34.91236603505374120802572263'
p931
tp932
Rp933
asg11
(lp934
F0.0
asg13
(lp935
F0.01
asg15
(lp936
g17
(g21
S'\x19\xa3\xe2\xf5\xea\x8c\x8a@'
p937
tp938
Rp939
asg27
(lp940
F4.557178020477295
asg29
(lp941
g17
(g21
S'L\xf9\xfdV\xd6 K@'
p942
tp943
Rp944
asg34
(lp945
g17
(g21
S'po\x8a\x95\x8b_\x17@'
p946
tp947
Rp948
asg39
(lp949
F0.0
asg41
F0.01
sg42
(lp950
g17
(g21
S'\xf9@\x88\x173dV@'
p951
tp952
Rp953
asg47
(lp954
F0.0
asg49
F0.46541162359847044
sg50
(lp955
g17
(g21
S'\x98*+:\x0c\xb8\x82@'
p956
tp957
Rp958
asg55
(lp959
g17
(g21
S'\x00\x00\x00\x00\x00@_@'
p960
tp961
Rp962
asg60
(lp963
F0.0
asg62
(lp964
g17
(g21
S'+\xd1\x12\xc68\r\xde?'
p965
tp966
Rp967
asg67
(lp968
g17
(g21
S'<\xd0\x16{ \x89\xdb\xbf'
p969
tp970
Rp971
assI1
I1
F2.0
tp972
.