((dp0
S'log-4.cnf'
p1
(dp2
S'exact_log_Z'
p3
(lp4
cdecimal
Decimal
p5
(S'65.32345235557495907353541722'
p6
tp7
Rp8
ag5
(S'65.32345235557495907353541722'
p9
tp10
Rp11
ag5
(S'65.32345235557495907353541722'
p12
tp13
Rp14
ag5
(S'65.32345235557495907353541722'
p15
tp16
Rp17
ag5
(S'65.32345235557495907353541722'
p18
tp19
Rp20
ag5
(S'65.32345235557495907353541722'
p21
tp22
Rp23
ag5
(S'65.32345235557495907353541722'
p24
tp25
Rp26
ag5
(S'65.32345235557495907353541722'
p27
tp28
Rp29
ag5
(S'65.32345235557495907353541722'
p30
tp31
Rp32
ag5
(S'65.32345235557495907353541722'
p33
tp34
Rp35
asS'barv_compute_time'
p36
(lp37
F2.5129430294036865
aF6.881279945373535
aF6.401273012161255
aF3.092698097229004
aF4.013560056686401
aF3.4700281620025635
aF2.534282922744751
aF3.1819539070129395
aF4.1419830322265625
aF4.97089695930481
asS'barv_expectation_LB'
p38
(lp39
cnumpy.core.multiarray
scalar
p40
(cnumpy
dtype
p41
(S'f8'
p42
I0
I1
tp43
Rp44
(I3
S'<'
p45
NNNI-1
I-1
I0
tp46
bS'\xf3\x94\xd6\x9c\xb3\x91\x04@'
p47
tp48
Rp49
ag40
(g44
S'\x82\x14R\xd6\xd5\xbc\n@'
p50
tp51
Rp52
ag40
(g44
S'\xa2\x14\xc1|\xa7\xf9\x08@'
p53
tp54
Rp55
ag40
(g44
S'?wO\x18V.\r@'
p56
tp57
Rp58
ag40
(g44
S'\xa1\xa8\xc1N \x97\x00@'
p59
tp60
Rp61
ag40
(g44
S'\x80jaW\x9eo\x17@'
p62
tp63
Rp64
ag40
(g44
S'\xa6\x86\xf0P\xc9\n\x17@'
p65
tp66
Rp67
ag40
(g44
S'w\x19!D1\xeb\xfa?'
p68
tp69
Rp70
ag40
(g44
S"\x16}'\x13m\x06\xf1?"
p71
tp72
Rp73
ag40
(g44
S'\xb998\x02\xbd\xbf\x14@'
p74
tp75
Rp76
asS'gumbel_expectation_LB'
p77
(lp78
F0.05529729577340242
aF0.03983307773011998
aF0.06923204224175349
aF0.06619756284159932
aF0.04035120496160617
aF0.06471594287307128
aF0.060363532573494846
aF0.08701653415422123
aF0.02569285014310515
aF0.0653781730376476
asS'barv_expectation_UB'
p79
(lp80
g40
(g44
S'\xe8\x00\x07\x91r\xe9\x81@'
p81
tp82
Rp83
ag40
(g44
S"H'\x81\x93\x02\xa9\x83@"
p84
tp85
Rp86
ag40
(g44
S'\xda\xcc\xec|d1\x83@'
p87
tp88
Rp89
ag40
(g44
S'\xa8-\x8b\x83\xcbE\x84@'
p90
tp91
Rp92
ag40
(g44
S'm\x04b\x1d{\x93\x80@'
p93
tp94
Rp95
ag40
(g44
S'k&q\xb1=\xda\x87@'
p96
tp97
Rp98
ag40
(g44
S'\xb9\x19\x9dE\x85\xb7\x87@'
p99
tp100
Rp101
ag40
(g44
S'\xf21Z\x1c4\xb7~@'
p102
tp103
Rp104
ag40
(g44
S'\x82\x07\xa8)\x05\xe9y@'
p105
tp106
Rp107
ag40
(g44
S'l\x061\xf9\xf8\xe3\x86@'
p108
tp109
Rp110
asS'barv_estimator'
p111
(lp112
g40
(g44
S'\x0f\xeb\xbe,\xbe4[@'
p113
tp114
Rp115
ag40
(g44
S'\x04\xed\x91\xb0\xb1\x04_@'
p116
tp117
Rp118
ag40
(g44
S'M2\x9e\x8c\x86\xfa]@'
p119
tp120
Rp121
ag40
(g44
S'R\xc8@\xf0\xca3`@'
p122
tp123
Rp124
ag40
(g44
S'\xd1\xa3\xdf\xcc\xf5nX@'
p125
tp126
Rp127
ag40
(g44
S'\xa2\xa7\r\x06\xd4\x88d@'
p128
tp129
Rp130
ag40
(g44
S'.\xb3\x0f\x80w\\d@'
p131
tp132
Rp133
ag40
(g44
S'{E\xfcx\xe6\x01V@'
p134
tp135
Rp136
ag40
(g44
S'\xb7q1\xdd\x80\x80Q@'
p137
tp138
Rp139
ag40
(g44
S'w\xf8\x1b\\LRc@'
p140
tp141
Rp142
asS'gumb_compute_time'
p143
(lp144
F3.626926898956299
aF2.644932985305786
aF1.9867517948150635
aF2.4007151126861572
aF2.8914949893951416
aF4.952927112579346
aF2.381531000137329
aF1.818687915802002
aF3.1142969131469727
aF1.7369701862335205
asS'gumbel_expectation_UB'
p145
(lp146
F127.34967216614578
aF91.7355780124663
aF159.44139328275827
aF152.45298722420324
aF92.92882502657902
aF149.04081643668314
aF139.01721551675863
aF200.3990781571715
aF59.170633879571156
aF150.56593250570242
asS'barv_high_prob_UB'
p147
(lp148
g40
(g44
S'\xa1buMRK\x8a@'
p149
tp150
Rp151
ag40
(g44
S'\xdc\x06\t{y\xa3\x8b@'
p152
tp153
Rp154
ag40
(g44
S'lL\x7fv$G\x8b@'
p155
tp156
Rp157
ag40
(g44
S's\xd6\x8bj\xda\x1c\x8c@'
p158
tp159
Rp160
ag40
(g44
S'\xb9K\x91\xf6\x06G\x89@'
p161
tp162
Rp163
ag40
(g44
S'61\x04\xa9&\xe9\x8e@'
p164
tp165
Rp166
ag40
(g44
S'\x9a\tD\xa5\xd5\xcd\x8e@'
p167
tp168
Rp169
ag40
(g44
S'![\xb6\x86\xf6[\x88@'
p170
tp171
Rp172
ag40
(g44
S'1\xed\xeei\x15\x94\x86@'
p173
tp174
Rp175
ag40
(g44
S"&al\xd8\xaa'\x8e@"
p176
tp177
Rp178
asS'gumbel_high_prob_UB'
p179
(lp180
g40
(g44
S'\x18\rB\xb3q\xa8\x84@'
p181
tp182
Rp183
ag40
(g44
S'Z\xf7\x0f\t\x88\x8b\x83@'
p184
tp185
Rp186
ag40
(g44
S'\xb8\xee\x89\x8b-\xa9\x85@'
p187
tp188
Rp189
ag40
(g44
S'li\x1aJEq\x85@'
p190
tp191
Rp192
ag40
(g44
S"\xa9$'\xce\x13\x95\x83@"
p193
tp194
Rp195
ag40
(g44
S'M\xc3\xe7)\xf9U\x85@'
p196
tp197
Rp198
ag40
(g44
S's\xe99\xd4\xc8\x05\x85@'
p199
tp200
Rp201
ag40
(g44
S'\x8d\xea9\xe2\xd6\xf0\x86@'
p202
tp203
Rp204
ag40
(g44
S'\x89\x00\xa2\x07\x03\x87\x82@'
p205
tp206
Rp207
ag40
(g44
S'\xa3{\xf5\x99,b\x85@'
p208
tp209
Rp210
asS'gumbel_high_prob_LB'
p211
(lp212
g40
(g44
S'\xa7;2\x19\xcc\x95\xc6\xbf'
p213
tp214
Rp215
ag40
(g44
S'^\xc2\x92\\\x87\x90\xc8\xbf'
p216
tp217
Rp218
ag40
(g44
S'\xa53\x04\xf9.\xcd\xc4\xbf'
p219
tp220
Rp221
ag40
(g44
S'S\x8f\xe8\x07\x9e0\xc5\xbf'
p222
tp223
Rp224
ag40
(g44
S'\x7f\xea\xd0\xfe\x8c\x7f\xc8\xbf'
p225
tp226
Rp227
ag40
(g44
S'\x0f;\x90\xc2*a\xc5\xbf'
p228
tp229
Rp230
ag40
(g44
S'O\xd9\x82l\xc9\xef\xc5\xbf'
p231
tp232
Rp233
ag40
(g44
S'JGr\xd7k\x86\xc2\xbf'
p234
tp235
Rp236
ag40
(g44
S'\x8ek\x180\xe0_\xca\xbf'
p237
tp238
Rp239
ag40
(g44
S's\x1f\x1d\x92wK\xc5\xbf'
p240
tp241
Rp242
asS'barv_high_prob_LB'
p243
(lp244
g40
(g44
S'-\xd7/mu\xed\x90?'
p245
tp246
Rp247
ag40
(g44
S']i$S\xd2\xeb\x82?'
p248
tp249
Rp250
ag40
(g44
S'A\xed\xbb\xa2\x04\xe3S?'
p251
tp252
Rp253
ag40
(g44
S'a\xcd\x10\xce\xb70\xa0?'
p254
tp255
Rp256
ag40
(g44
S'\x84g\xbf\xde@\xd3\xb5?'
p257
tp258
Rp259
ag40
(g44
S'\xe6\xc2\x9fN?V\xde?'
p260
tp261
Rp262
ag40
(g44
S')\r\xc2QA\x90\xdc?'
p263
tp264
Rp265
ag40
(g44
S'\xa6c\xf5r\xa77\xc8?'
p266
tp267
Rp268
ag40
(g44
S'\xa8&\x0bZ\xf2g\xdf?'
p269
tp270
Rp271
ag40
(g44
S'\x97m`\xe3j\x0b\xd3?'
p272
tp273
Rp274
assS'sat-grid-pbl-0010.cnf'
p275
(dp276
g3
(lp277
g5
(S'54.74110355310283121263143109'
p278
tp279
Rp280
ag5
(S'54.74110355310283121263143109'
p281
tp282
Rp283
ag5
(S'54.74110355310283121263143109'
p284
tp285
Rp286
ag5
(S'54.74110355310283121263143109'
p287
tp288
Rp289
ag5
(S'54.74110355310283121263143109'
p290
tp291
Rp292
ag5
(S'54.74110355310283121263143109'
p293
tp294
Rp295
ag5
(S'54.74110355310283121263143109'
p296
tp297
Rp298
ag5
(S'54.74110355310283121263143109'
p299
tp300
Rp301
ag5
(S'54.74110355310283121263143109'
p302
tp303
Rp304
ag5
(S'54.74110355310283121263143109'
p305
tp306
Rp307
asg36
(lp308
F0.01216888427734375
aF0.011009931564331055
aF0.011198043823242188
aF0.009933948516845703
aF0.010154962539672852
aF0.010891914367675781
aF0.010586977005004883
aF0.012512922286987305
aF0.010946989059448242
aF0.011512994766235352
asg38
(lp309
g40
(g44
S'vW\xba\xeb\xa1\xd1.@'
p310
tp311
Rp312
ag40
(g44
S"{\xcfJ\x8d\xf6\xea'@"
p313
tp314
Rp315
ag40
(g44
S'\xd5#r\xf0|\xb01@'
p316
tp317
Rp318
ag40
(g44
S'vW\xba\xeb\xa1\xd1.@'
p319
tp320
Rp321
ag40
(g44
S'\xd1w\x8a\x9d\xcb\x92*@'
p322
tp323
Rp324
ag40
(g44
S"{\xcfJ\x8d\xf6\xea'@"
p325
tp326
Rp327
ag40
(g44
S"{\xcfJ\x8d\xf6\xea'@"
p328
tp329
Rp330
ag40
(g44
S'\x1f\xb6\xbb\xaaM2$@'
p331
tp332
Rp333
ag40
(g44
S'j\xf9\xd3\x16!\xf4+@'
p334
tp335
Rp336
ag40
(g44
S'\xbf\xa8T\xf6v\xa4&@'
p337
tp338
Rp339
asg77
(lp340
F0.5885488970190519
aF0.34674728768721513
aF0.46347270602310936
aF0.6124159798223413
aF0.5025189097337107
aF0.5379152620742943
aF0.46432959954441905
aF0.6789744009875501
aF0.7286938634107663
aF0.6307161197330753
asg79
(lp341
g40
(g44
S'\xc9\t\x1f\x93\xc1\x0fS@'
p342
tp343
Rp344
ag40
(g44
S'\xc9\t\x1f\x93\xc1\x0fS@'
p345
tp346
Rp347
ag40
(g44
S'\xc9\t\x1f\x93\xc1\x0fS@'
p348
tp349
Rp350
ag40
(g44
S'\xc9\t\x1f\x93\xc1\x0fS@'
p351
tp352
Rp353
ag40
(g44
S'\xc9\t\x1f\x93\xc1\x0fS@'
p354
tp355
Rp356
ag40
(g44
S'\xc9\t\x1f\x93\xc1\x0fS@'
p357
tp358
Rp359
ag40
(g44
S'\xc9\t\x1f\x93\xc1\x0fS@'
p360
tp361
Rp362
ag40
(g44
S'\xc9\t\x1f\x93\xc1\x0fS@'
p363
tp364
Rp365
ag40
(g44
S'\xc9\t\x1f\x93\xc1\x0fS@'
p366
tp367
Rp368
ag40
(g44
S'\xc9\t\x1f\x93\xc1\x0fS@'
p369
tp370
Rp371
asg111
(lp372
g40
(g44
S'\nl\xa8\xee\xb7\x1cM@'
p373
tp374
Rp375
ag40
(g44
S'\xfcR\xd1v}\xa5I@'
p376
tp377
Rp378
ag40
(g44
S'x\xe1\x8f6\x0e1O@'
p379
tp380
Rp381
ag40
(g44
S'\nl\xa8\xee\xb7\x1cM@'
p382
tp383
Rp384
ag40
(g44
S'\x9b\xf6\xc0\xa6a\x08K@'
p385
tp386
Rp387
ag40
(g44
S'\xfcR\xd1v}\xa5I@'
p388
tp389
Rp390
ag40
(g44
S'\xfcR\xd1v}\xa5I@'
p391
tp392
Rp393
ag40
(g44
S"\x8e\xdd\xe9.'\x91G@"
p394
tp395
Rp396
ag40
(g44
S'k\xc8\xb8\xbe\xd3\xb9K@'
p397
tp398
Rp399
ag40
(g44
S'-\x81\xd9^\x0b\xf4H@'
p400
tp401
Rp402
asg143
(lp403
F0.015453815460205078
aF0.014838933944702148
aF0.020760059356689453
aF0.015130043029785156
aF0.01173710823059082
aF0.014449834823608398
aF0.015192985534667969
aF0.01729893684387207
aF0.014447927474975586
aF0.013982057571411133
asg145
(lp404
F64.7403786720957
aF38.142201645593666
aF50.98199766254203
aF67.36575778045754
aF55.27708007070818
aF59.17067882817237
aF51.0762559498861
aF74.68718410863052
aF80.15632497518429
aF69.37877317063828
asg147
(lp405
g40
(g44
S'\xc9\t\x1f\x93\xc1\x0fS@'
p406
tp407
Rp408
ag40
(g44
S'\xc9\t\x1f\x93\xc1\x0fS@'
p409
tp410
Rp411
ag40
(g44
S'\xc9\t\x1f\x93\xc1\x0fS@'
p412
tp413
Rp414
ag40
(g44
S'\xc9\t\x1f\x93\xc1\x0fS@'
p415
tp416
Rp417
ag40
(g44
S'\xc9\t\x1f\x93\xc1\x0fS@'
p418
tp419
Rp420
ag40
(g44
S'\xc9\t\x1f\x93\xc1\x0fS@'
p421
tp422
Rp423
ag40
(g44
S'\xc9\t\x1f\x93\xc1\x0fS@'
p424
tp425
Rp426
ag40
(g44
S'\xc9\t\x1f\x93\xc1\x0fS@'
p427
tp428
Rp429
ag40
(g44
S'\xc9\t\x1f\x93\xc1\x0fS@'
p430
tp431
Rp432
ag40
(g44
S'\xc9\t\x1f\x93\xc1\x0fS@'
p433
tp434
Rp435
asg179
(lp436
g40
(g44
S'\x05\x7f\xb0x4\xacf@'
p437
tp438
Rp439
ag40
(g44
S'\x96\xbd\x8a4\x10Yc@'
p440
tp441
Rp442
ag40
(g44
S'\xec@p\xd0\xef\xf3d@'
p443
tp444
Rp445
ag40
(g44
S'\x86\xbf\xbc\x937\x00g@'
p446
tp447
Rp448
ag40
(g44
S'G\xd7\x19!a}e@'
p449
tp450
Rp451
ag40
(g44
S'\t\xb9\x85}\xf9\xf9e@'
p452
tp453
Rp454
ag40
(g44
S'\x8e\xf1d\xfa\xf3\xf6d@'
p455
tp456
Rp457
ag40
(g44
S'\xf7\xb1\x9a\xb3\x80\xeag@'
p458
tp459
Rp460
ag40
(g44
S'\x10\x94O\xe7\x83\x99h@'
p461
tp462
Rp463
ag40
(g44
S'\xfe$\xfd2\xa2@g@'
p464
tp465
Rp466
asg211
(lp467
g40
(g44
S'~c\x1a\x97]2\xde\xbf'
p468
tp469
Rp470
ag40
(g44
S'{\x9b\x13\x86\x05\xd6\xe6\xbf'
p471
tp472
Rp473
ag40
(g44
S'\xce\xf0G\x94\xce\x19\xe3\xbf'
p474
tp475
Rp476
ag40
(g44
S'\xb1\x8f\x14\xcaS\xab\xdc\xbf'
p477
tp478
Rp479
ag40
(g44
S'\xac\xe6H\xc1\xf0\xd9\xe1\xbf'
p480
tp481
Rp482
ag40
(g44
S'/|R9\xf9\xb7\xe0\xbf'
p483
tp484
Rp485
ag40
(g44
S'\x89"\x13\x8b\xc9\x12\xe3\xbf'
p486
tp487
Rp488
ag40
(g44
S'\xe4+\x89\x89\xd5h\xd8\xbf'
p489
tp490
Rp491
ag40
(g44
S'\x9e\xe5C\xff::\xd5\xbf'
p492
tp493
Rp494
ag40
(g44
S'\xca\x1dyp\x7f\x7f\xdb\xbf'
p495
tp496
Rp497
asg243
(lp498
g40
(g44
S'\xb8\xe9\x9a\xea\x9f>\x13@'
p499
tp500
Rp501
ag40
(g44
S'\xf7\x80\xe8V\xf6\xd5\x07@'
p502
tp503
Rp504
ag40
(g44
S'\xe6\xf2L\xd6\xb1z\x18@'
p505
tp506
Rp507
ag40
(g44
S'\xb8\xe9\x9a\xea\x9f>\x13@'
p508
tp509
Rp510
ag40
(g44
S'T\x03\xba\x99"G\r@'
p511
tp512
Rp513
ag40
(g44
S'\xf7\x80\xe8V\xf6\xd5\x07@'
p514
tp515
Rp516
ag40
(g44
S'\xf7\x80\xe8V\xf6\xd5\x07@'
p517
tp518
Rp519
ag40
(g44
S'\xf9\xc9\xef\xc9\x8e\xb8\x00@'
p520
tp521
Rp522
ag40
(g44
S'\x1e\xbd\xe4?\xb2\x1a\x10@'
p523
tp524
Rp525
ag40
(g44
S'\x7fu&\xfa\x0bS\x05@'
p526
tp527
Rp528
assS'tire-1.cnf'
p529
(dp530
g3
(lp531
g5
(S'20.40366757860640219747606596'
p532
tp533
Rp534
ag5
(S'20.40366757860640219747606596'
p535
tp536
Rp537
ag5
(S'20.40366757860640219747606596'
p538
tp539
Rp540
ag5
(S'20.40366757860640219747606596'
p541
tp542
Rp543
ag5
(S'20.40366757860640219747606596'
p544
tp545
Rp546
ag5
(S'20.40366757860640219747606596'
p547
tp548
Rp549
ag5
(S'20.40366757860640219747606596'
p550
tp551
Rp552
ag5
(S'20.40366757860640219747606596'
p553
tp554
Rp555
ag5
(S'20.40366757860640219747606596'
p556
tp557
Rp558
ag5
(S'20.40366757860640219747606596'
p559
tp560
Rp561
asg36
(lp562
F0.031239032745361328
aF0.03756093978881836
aF0.03651094436645508
aF0.03624296188354492
aF0.0330500602722168
aF0.03429007530212402
aF0.03497505187988281
aF0.034818172454833984
aF0.030657052993774414
aF0.03310799598693848
asg38
(lp563
g40
(g44
S'\xa9vT3\x05C\x13@'
p564
tp565
Rp566
ag40
(g44
S']\xa2.\x11!\x1f\xe1?'
p567
tp568
Rp569
ag40
(g44
S'\xa9vT3\x05C\xf3?'
p570
tp571
Rp572
ag40
(g44
S'\xf9\xee\xf3 \x02\x89\xef?'
p573
tp574
Rp575
ag40
(g44
S'\xef\xd2\xe9\xb3\x94M\xec?'
p576
tp577
Rp578
ag40
(g44
S'\\\xcfD\xf3\xfc\x1a\xf7?'
p579
tp580
Rp581
ag40
(g44
S'\x93\x01KPhL\xfb?'
p582
tp583
Rp584
ag40
(g44
S'\xd2\xe7\xa9\x9f\xd2#\xf5?'
p585
tp586
Rp587
ag40
(g44
S'\xcc$\x9f\xf3L\xc8\x07@'
p588
tp589
Rp590
ag40
(g44
S']\xa2.\x11!\x1f\x01@'
p591
tp592
Rp593
asg77
(lp594
F0.05248707211326726
aF0.10347257386766992
aF0.13242436341226568
aF0.17137953391835975
aF0.04162417231767724
aF0.20466742184502634
aF0.12201722988561738
aF-0.01886670965779155
aF0.12409681034798638
aF0.11927446533867596
asg79
(lp595
g40
(g44
S'\xf7\xb9\x81\x06\x9a-h@'
p596
tp597
Rp598
ag40
(g44
S'\x1b9\xa29\x13oX@'
p599
tp600
Rp601
ag40
(g44
S'-(@f\xb7\x15`@'
p602
tp603
Rp604
ag40
(g44
S'\xacd\x13\xdex\x1d^@'
p605
tp606
Rp607
ag40
(g44
S',*\xb70S\x0b]@'
p608
tp609
Rp610
ag40
(g44
S'fM,\x0b\xd6\x0ea@'
p611
tp612
Rp613
ag40
(g44
S'e\xd5\xb9W#\xfba@'
p614
tp615
Rp616
ag40
(g44
S'\x98\x05\x9fh\xf0\x93`@'
p617
tp618
Rp619
ag40
(g44
S'\x08\x9e\x19\xf2\xc0;e@'
p620
tp621
Rp622
ag40
(g44
S'!\xece4mGc@'
p623
tp624
Rp625
asg111
(lp626
g40
(g44
S'\nl\xa8\xee\xb7\x1cM@'
p627
tp628
Rp629
ag40
(g44
S'\xb1\xf2\x1a\x9fzh3@'
p630
tp631
Rp632
ag40
(g44
S'\nl\xa8\xee\xb7\x1c=@'
p633
tp634
Rp635
ag40
(g44
S'\xcc$\xc9\x8e\xefV:@'
p636
tp637
Rp638
ag40
(g44
S'-\x81\xd9^\x0b\xf48@'
p639
tp640
Rp641
ag40
(g44
S'H\xb3\x87N\x80\xe2?@'
p642
tp643
Rp644
ag40
(g44
S'C}3W$TA@'
p645
tp646
Rp647
ag40
(g44
S'\xa9\x0f\x98\x1e\x9c\x7f>@'
p648
tp649
Rp650
ag40
(g44
S'\xbe\x0b\xf2\x16\xb5\xdfF@'
p651
tp652
Rp653
ag40
(g44
S'\xb1\xf2\x1a\x9fzhC@'
p654
tp655
Rp656
asg143
(lp657
F0.030616044998168945
aF0.03260993957519531
aF0.032045841217041016
aF0.03777480125427246
aF0.03052496910095215
aF0.03765702247619629
aF0.028973102569580078
aF0.031742095947265625
aF0.032193899154663086
aF0.031848907470703125
asg145
(lp658
F18.475449383870075
aF36.42234600141981
aF46.61337592111752
aF60.325595939262634
aF14.651708655822388
aF72.04293248944927
aF42.950064919737315
aF-6.641081799542625
aF43.682077242491204
aF41.98461179921394
asg147
(lp659
g40
(g44
S'\x93G\r\x03\xa2\xf9l@'
p660
tp661
Rp662
ag40
(g44
S'\xaf\x0e\x8eP\xc1\x9ef@'
p663
tp664
Rp665
ag40
(g44
S'\x83p\xad\x06\x9d\xbch@'
p666
tp667
Rp668
ag40
(g44
S'\x10v\x84|\xfc+h@'
p669
tp670
Rp671
ag40
(g44
S'\x069/l\xaf\xe0g@'
p672
tp673
Rp674
ag40
(g44
S'\xc7\xba@pzEi@'
p675
tp676
Rp677
ag40
(g44
S'\xc0\xb9\x0b\xf9\xcd\xc6i@'
p678
tp679
Rp680
ag40
(g44
S'<\x16\x83g\x00\x02i@'
p681
tp682
Rp683
ag40
(g44
S'\xbb\xe3V1y\x84k@'
p684
tp685
Rp686
ag40
(g44
S'\xf4z\xaf;\x18{j@'
p687
tp688
Rp689
asg179
(lp690
g40
(g44
S'!\xcd\x95\xe7"dl@'
p691
tp692
Rp693
ag40
(g44
S'Wo\xb8\xe1o\xa2n@'
p694
tp695
Rp696
ag40
(g44
S'o\xa4\x7f\xcc\x8c\xe8o@'
p697
tp698
Rp699
ag40
(g44
S'\x0e*\x11\xa7\xab\xcfp@'
p700
tp701
Rp702
ag40
(g44
S'\xfd\xe1\x11\xd2\xc6\xe9k@'
p703
tp704
Rp705
ag40
(g44
S'|\x1e\xf5\xdc%\x8bq@'
p706
tp707
Rp708
ag40
(g44
S'Fd\x81\xf4Rso@'
p709
tp710
Rp711
ag40
(g44
S'\x08\x16\xfbGh@i@'
p712
tp713
Rp714
ag40
(g44
S'-\xb4\x9c\x99\xbf\x8ao@'
p715
tp716
Rp717
ag40
(g44
S'D\x15\x90\xf6mTo@'
p718
tp719
Rp720
asg211
(lp721
g40
(g44
S'\x14xl\x1a\xf8I\xe1\xbf'
p722
tp723
Rp724
ag40
(g44
S'\xc122\x83\x97P\xdf\xbf'
p725
tp726
Rp727
ag40
(g44
S'\x87\xe5\xe1\xe7>v\xdd\xbf'
p728
tp729
Rp730
ag40
(g44
S'\xea\x88\x0c\x14\x01\xf8\xda\xbf'
p731
tp732
Rp733
ag40
(g44
S'\xd1\x0bXA\xf5\xa2\xe1\xbf'
p734
tp735
Rp736
ag40
(g44
S'\x90\xaa\x8c\x8e\x9d\xd6\xd8\xbf'
p737
tp738
Rp739
ag40
(g44
S'\t\xfdj\x96\xc1 \xde\xbf'
p740
tp741
Rp742
ag40
(g44
S'TZQ\xd4\x7f\x92\xe3\xbf'
p743
tp744
Rp745
ag40
(g44
S'\xb9+\xe61\xaf\xfe\xdd\xbf'
p746
tp747
Rp748
ag40
(g44
S'Q\xe4l\x93\xb1M\xde\xbf'
p749
tp750
Rp751
asg243
(lp752
g40
(g44
S'\x0c\xf1\xa7}\x1c]\xcb?'
p753
tp754
Rp755
ag40
(g44
S'\x03]\xb8\x1e\xc0\x04\xf0?'
p756
tp757
Rp758
ag40
(g44
S'\x9c!\x18R2\xcb\xd9?'
p759
tp760
Rp761
ag40
(g44
S'\xee\xc5\x96\x01\xf1}\xe1?'
p762
tp763
Rp764
ag40
(g44
S'\xa1\x83\xac\xa33\r\xe4?'
p765
tp766
Rp767
ag40
(g44
S'n\x1dZ\x15Q\x00\xd2?'
p768
tp769
Rp770
ag40
(g44
S'\xa4\xfe\xe6\x99|6\xc7?'
p771
tp772
Rp773
ag40
(g44
S'\xc22.\xe5\x07\xb9\xd5?'
p774
tp775
Rp776
ag40
(g44
S'`\xa890l;\x10?'
p777
tp778
Rp779
ag40
(g44
S'1\xc6\xf5\xe9\x14\x8a\xb2?'
p780
tp781
Rp782
assS'log-1.cnf'
p783
(dp784
g3
(lp785
g5
(S'47.78185814456179880189729527'
p786
tp787
Rp788
ag5
(S'47.78185814456179880189729527'
p789
tp790
Rp791
ag5
(S'47.78185814456179880189729527'
p792
tp793
Rp794
ag5
(S'47.78185814456179880189729527'
p795
tp796
Rp797
ag5
(S'47.78185814456179880189729527'
p798
tp799
Rp800
ag5
(S'47.78185814456179880189729527'
p801
tp802
Rp803
ag5
(S'47.78185814456179880189729527'
p804
tp805
Rp806
ag5
(S'47.78185814456179880189729527'
p807
tp808
Rp809
ag5
(S'47.78185814456179880189729527'
p810
tp811
Rp812
ag5
(S'47.78185814456179880189729527'
p813
tp814
Rp815
asg36
(lp816
F0.06147193908691406
aF0.06496810913085938
aF0.06018805503845215
aF0.056758880615234375
aF0.0616610050201416
aF0.05864381790161133
aF0.05489492416381836
aF0.06665396690368652
aF0.05891299247741699
aF0.05662107467651367
asg38
(lp817
g40
(g44
S'n\xb9\x84\x15*6\x00@'
p818
tp819
Rp820
ag40
(g44
S's\xa1r\x13\xefD\xf8?'
p821
tp822
Rp823
ag40
(g44
S'\xb2IHS3\xd0\xf5?'
p824
tp825
Rp826
ag40
(g44
S'a\x8aA\xbbq\xa6\x12@'
p827
tp828
Rp829
ag40
(g44
S's\x9a\xa4\x90h\xa2\xf4?'
p830
tp831
Rp832
ag40
(g44
S'\x076S\x7f\xff\x92\xfd?'
p833
tp834
Rp835
ag40
(g44
S'\x8f@+\xf7\x86\xb6\x05@'
p836
tp837
Rp838
ag40
(g44
S'=\x06\x85\xf5|\x90\x06@'
p839
tp840
Rp841
ag40
(g44
S'\x8dN\xc7\xfc\x93\xfb\x0c@'
p842
tp843
Rp844
ag40
(g44
S'=\x06\x85\xf5|\x90\x06@'
p845
tp846
Rp847
asg77
(lp848
F-0.013705100648099733
aF0.08281065481528345
aF0.08176066616575306
aF0.09922153148540568
aF0.10988416314925747
aF0.040660326304924305
aF0.08372439549695995
aF0.07112554848991957
aF0.059670972726754284
aF0.13949872328866694
asg79
(lp849
g40
(g44
S'\xc0\xcf\xc3\xa7yer@'
p850
tp851
Rp852
ag40
(g44
S'\x07\xc2\x02qJ\xa5p@'
p853
tp854
Rp855
ag40
(g44
S'\xa2x\x80\xa1\xdc\x08p@'
p856
tp857
Rp858
ag40
(g44
S'\xc9X\x1e\xf7\x1b*x@'
p859
tp860
Rp861
ag40
(g44
S'\xb7\xe8\xd8<wro@'
p862
tp863
Rp864
ag40
(g44
S'\x05\x85A5q\xd3q@'
p865
tp866
Rp867
ag40
(g44
S'\xba\xd2\xfe\x8aVLt@'
p868
tp869
Rp870
ag40
(g44
S'\x96V\x0b\xf0\xfe\x8et@'
p871
tp872
Rp873
ag40
(g44
S'-3\xc0\xd2\xfbNv@'
p874
tp875
Rp876
ag40
(g44
S'\x96V\x0b\xf0\xfe\x8et@'
p877
tp878
Rp879
asg111
(lp880
g40
(g44
S'\x90\xf8\x93*U\xd8N@'
p881
tp882
Rp883
ag40
(g44
S'\xb4\r\xc5\x9a\xa8\xafJ@'
p884
tp885
Rp886
ag40
(g44
S'\x15j\xd5j\xc4LI@'
p887
tp888
Rp889
ag40
(g44
S'\x1a\xe9\xeb\xa8\xcadW@'
p890
tp891
Rp892
ag40
(g44
S'E\x98\xddRR\x9bH@'
p893
tp894
Rp895
ag40
(g44
S'\xf1T\xa4\xfapuM@'
p896
tp897
Rp898
ag40
(g44
S'\x9eZ-\xe99\xd9Q@'
p899
tp900
Rp901
ag40
(g44
S'\x86C)\xf5\xf21R@'
p902
tp903
Rp904
ag40
(g44
S'\xdc\xa1\x0cI\x02\x9fT@'
p905
tp906
Rp907
ag40
(g44
S'\x86C)\xf5\xf21R@'
p908
tp909
Rp910
asg143
(lp911
F0.0693349838256836
aF0.06906414031982422
aF0.06344199180603027
aF0.08015894889831543
aF0.06749892234802246
aF0.07040596008300781
aF0.061926841735839844
aF0.06159496307373047
aF0.049127817153930664
aF0.06969594955444336
asg145
(lp912
F-12.869089508565649
aF77.75920487155116
aF76.77326552964212
aF93.16901806479594
aF103.18122919715277
aF38.180046400323924
aF78.61720737164539
aF66.78689003203448
aF56.031043390422276
aF130.98930116805826
asg147
(lp913
g40
(g44
S'\x87\xfb\xaf^r0{@'
p914
tp915
Rp916
ag40
(g44
S'`\x8b\xdc\x8d\xad\xfdy@'
p917
tp918
Rp919
ag40
(g44
S'\x9e\x1f\x86Ku\x93y@'
p920
tp921
Rp922
ag40
(g44
S'\x06\x18}_#2\x7f@'
p923
tp924
Rp925
ag40
(g44
S'\x17\xe2\x1b\xd0\x94]y@'
p926
tp927
Rp928
ag40
(g44
S'\xe4|\xba\xbe!\xccz@'
p929
tp930
Rp931
ag40
(g44
S'\xbd\xdb\x8c\xec\xe2\x80|@'
p932
tp933
Rp934
ag40
(g44
S'\x8a!I\xa7$\xaf|@'
p935
tp936
Rp937
ag40
(g44
S'\xab\xf9E\xc0\xd3\xe6}@'
p938
tp939
Rp940
ag40
(g44
S'\x8a!I\xa7$\xaf|@'
p941
tp942
Rp943
asg179
(lp944
g40
(g44
S'\x9ej\x81\x15\xbf~t@'
p945
tp946
Rp947
ag40
(g44
S'j\xd8\xe9\x93\xcc(z@'
p948
tp949
Rp950
ag40
(g44
S'\xfd\x02\x95+\x06\x19z@'
p951
tp952
Rp953
ag40
(g44
S'\xb4?1,[\x1f{@'
p954
tp955
Rp956
ag40
(g44
S'\x9f!~0\x8d\xbf{@'
p957
tp958
Rp959
ag40
(g44
S'u\x86=X\x88\xafw@'
p960
tp961
Rp962
ag40
(g44
S'\x125\xbe\xf4\x866z@'
p963
tp964
Rp965
ag40
(g44
S'.\x86\xe8\xf9=yy@'
p966
tp967
Rp968
ag40
(g44
S'\xed\x9dB\x07&\xcdx@'
p969
tp970
Rp971
ag40
(g44
S'F\x1f^\r{|}@'
p972
tp973
Rp974
asg211
(lp975
g40
(g44
S'\xf0-\xe7\xbe\xc7\x1a\xd8\xbf'
p976
tp977
Rp978
ag40
(g44
S'&I\x96Sw\xed\xd1\xbf'
p979
tp980
Rp981
ag40
(g44
S'h\x95PL\xab\xfe\xd1\xbf'
p982
tp983
Rp984
ag40
(g44
S' \x16\xf0\x1e\x97\xe0\xd0\xbf'
p985
tp986
Rp987
ag40
(g44
S'\xe0\xcf]\xcd\xe41\xd0\xbf'
p988
tp989
Rp990
ag40
(g44
S'\x1c74\x9e\x0e\xa0\xd4\xbf'
p991
tp992
Rp993
ag40
(g44
S'\x887\x00\xd2~\xde\xd1\xbf'
p994
tp995
Rp996
ag40
(g44
S'|k\xf76\xea\xac\xd2\xbf'
p997
tp998
Rp999
ag40
(g44
S'U!\n0\x96h\xd3\xbf'
p1000
tp1001
Rp1002
ag40
(g44
S't?\x17\xab`\x99\xcc\xbf'
p1003
tp1004
Rp1005
asg243
(lp1006
g40
(g44
S'\xc2*\xf2,\xe9]\xb8?'
p1007
tp1008
Rp1009
ag40
(g44
S'\x7fj\x93\x02s\x07\xd0?'
p1010
tp1011
Rp1012
ag40
(g44
S'Pm%\t\xb3c\xd4?'
p1013
tp1014
Rp1015
ag40
(g44
S'd\x00\t\x00Q]\xc7?'
p1016
tp1017
Rp1018
ag40
(g44
S'Ea4\x82\x1f\xc4\xd6?'
p1019
tp1020
Rp1021
ag40
(g44
S'_\xf2=G\xad\xc2\xc1?'
p1022
tp1023
Rp1024
ag40
(g44
S'\xecR;\xc8/O}?'
p1025
tp1026
Rp1027
ag40
(g44
S'$\xe3\xb4(\x97\xaaf?'
p1028
tp1029
Rp1030
ag40
(g44
S')^=\xf1\x8c\x0e\x9e?'
p1031
tp1032
Rp1033
ag40
(g44
S'$\xe3\xb4(\x97\xaaf?'
p1034
tp1035
Rp1036
assS'tire-4.cnf'
p1037
(dp1038
g3
(lp1039
g5
(S'32.26760906093560147581645240'
p1040
tp1041
Rp1042
ag5
(S'32.26760906093560147581645240'
p1043
tp1044
Rp1045
ag5
(S'32.26760906093560147581645240'
p1046
tp1047
Rp1048
ag5
(S'32.26760906093560147581645240'
p1049
tp1050
Rp1051
ag5
(S'32.26760906093560147581645240'
p1052
tp1053
Rp1054
ag5
(S'32.26760906093560147581645240'
p1055
tp1056
Rp1057
ag5
(S'32.26760906093560147581645240'
p1058
tp1059
Rp1060
ag5
(S'32.26760906093560147581645240'
p1061
tp1062
Rp1063
ag5
(S'32.26760906093560147581645240'
p1064
tp1065
Rp1066
ag5
(S'32.26760906093560147581645240'
p1067
tp1068
Rp1069
asg36
(lp1070
F0.05253887176513672
aF0.054952144622802734
aF0.052587032318115234
aF0.06319117546081543
aF0.059214115142822266
aF0.04893302917480469
aF0.04948091506958008
aF0.053713083267211914
aF0.03698587417602539
aF0.05727505683898926
asg38
(lp1071
g40
(g44
S'\xe2g\xd7\x0e\x06T\xe2?'
p1072
tp1073
Rp1074
ag40
(g44
S'T\xbaY6\xe0\xd8\xef?'
p1075
tp1076
Rp1077
ag40
(g44
S'[\xac\n<\xa8\xe9\x04@'
p1078
tp1079
Rp1080
ag40
(g44
S'\xe8\xa5\x01\xfaC\x08\x04@'
p1081
tp1082
Rp1083
ag40
(g44
S'\x83I.)BW\xfb?'
p1084
tp1085
Rp1086
ag40
(g44
S'\xd3\x15\x8b:\xb9\xeb\xf9?'
p1087
tp1088
Rp1089
ag40
(g44
S'T\xbaY6\xe0\xd8\xef?'
p1090
tp1091
Rp1092
ag40
(g44
S'\xdeT\xb2\xd0\x86\x9e\xf4?'
p1093
tp1094
Rp1095
ag40
(g44
S'\x18\ttzG\xa0\x1a@'
p1096
tp1097
Rp1098
ag40
(g44
S'\xc6\xb1\x16\xd3|\xcc\xfc?'
p1099
tp1100
Rp1101
asg77
(lp1102
F0.06350902454661682
aF0.10322176244943687
aF0.08898481787830935
aF0.0975916026041031
aF0.08093515061933881
aF0.008429845035356114
aF0.06327068420813943
aF0.12782013005143011
aF0.16414803484604815
aF0.048729830054127746
asg79
(lp1103
g40
(g44
S'+Z\x07\xbf\xe6ae@'
p1104
tp1105
Rp1106
ag40
(g44
S'\xc2_\xf1\xe4*\x1ej@'
p1107
tp1108
Rp1109
ag40
(g44
S'\x05\x00B\x87O0r@'
p1110
tp1111
Rp1112
ag40
(g44
S'\x1e\xb0\x82\x96\xdc\xeeq@'
p1113
tp1114
Rp1115
ag40
(g44
S'\x84\x97\x955M\x8bo@'
p1116
tp1117
Rp1118
ag40
(g44
S'\x1bpr\xa7\r\xf9n@'
p1119
tp1120
Rp1121
ag40
(g44
S'\xc2_\xf1\xe4*\x1ej@'
p1122
tp1123
Rp1124
ag40
(g44
S'\x13\x82\xc5W\x89\x9cl@'
p1125
tp1126
Rp1127
ag40
(g44
S'\xeb\x08\x04\xec\x87Hx@'
p1128
tp1129
Rp1130
ag40
(g44
S'\xd64}\x84\xd8\rp@'
p1131
tp1132
Rp1133
asg111
(lp1134
g40
(g44
S'\xa9\x0f\x98\x1e\x9c\x7f>@'
p1135
tp1136
Rp1137
ag40
(g44
S'\x81\xc4\x12\xb7\xec\x19D@'
p1138
tp1139
Rp1140
ag40
(g44
S'\x8c\xc2?3\xf9IP@'
p1141
tp1142
Rp1143
ag40
(g44
S'H\xb3\x87N\x80\xe2O@'
p1144
tp1145
Rp1146
ag40
(g44
S'\xcc$\xc9\x8e\xefVJ@'
p1147
tp1148
Rp1149
ag40
(g44
S'\xfcR\xd1v}\xa5I@'
p1150
tp1151
Rp1152
ag40
(g44
S'\x81\xc4\x12\xb7\xec\x19D@'
p1153
tp1154
Rp1155
ag40
(g44
S'\xbe\x0b\xf2\x16\xb5\xdfF@'
p1156
tp1157
Rp1158
ag40
(g44
S'\xe4;\xcd\x826\xfeY@'
p1159
tp1160
Rp1161
ag40
(g44
S'\x9b\xf6\xc0\xa6a\x08K@'
p1162
tp1163
Rp1164
asg143
(lp1165
F0.05499887466430664
aF0.05099821090698242
aF0.06232905387878418
aF0.055091142654418945
aF0.047396183013916016
aF0.04925799369812012
aF0.06489300727844238
aF0.06885910034179688
aF0.05858778953552246
aF0.042352914810180664
asg145
(lp1166
F51.56932793185286
aF83.81607110894274
aF72.25567211718719
aF79.24438131453172
aF65.71934230290312
aF6.845034168709165
aF51.375795577009214
aF103.78994560176125
aF133.2882042949911
aF39.56862200395173
asg147
(lp1167
g40
(g44
S'\x16\xbc\x0b\xef\xc2\x90t@'
p1168
tp1169
Rp1170
ag40
(g44
S'b\x04\xce\xf8\x9a\x17v@'
p1171
tp1172
Rp1173
ag40
(g44
S"\xca\xaf%\x90'\x84y@"
p1174
tp1175
Rp1176
ag40
(g44
S'A\xbd\xf9+\xe4Wy@'
p1177
tp1178
Rp1179
ag40
(g44
S'R\x90k*\x98\xe3w@'
p1180
tp1181
Rp1182
ag40
(g44
S'\xc0!\x19\xde\xb4\xb2w@'
p1183
tp1184
Rp1185
ag40
(g44
S'b\x04\xce\xf8\x9a\x17v@'
p1186
tp1187
Rp1188
ag40
(g44
S'\x0b\xc6g\x81\xaf\xe9v@'
p1189
tp1190
Rp1191
ag40
(g44
S'\xb7\x98D(\x97\xa2}@'
p1192
tp1193
Rp1194
ag40
(g44
S'\xe0xe~\xf2\x13x@'
p1195
tp1196
Rp1197
asg179
(lp1198
g40
(g44
S'\x9bv\x87\x8b\xa2\x07w@'
p1199
tp1200
Rp1201
ag40
(g44
S'f\xb8\x804\x95\x0by@'
p1202
tp1203
Rp1204
ag40
(g44
S'\x94\xd3\x91\xcf\x9dRx@'
p1205
tp1206
Rp1207
ag40
(g44
S'*\x11N\x90o\xc2x@'
p1208
tp1209
Rp1210
ag40
(g44
S'\x0f\x90\xff\x00\t\xeaw@'
p1211
tp1212
Rp1213
ag40
(g44
S'9\xe0x\xd6\x0b<t@'
p1214
tp1215
Rp1216
ag40
(g44
S'D\x8a%\xd6\x89\x04w@'
p1217
tp1218
Rp1219
ag40
(g44
S'mI\xec1*Kz@'
p1220
tp1221
Rp1222
ag40
(g44
S'X\xcf\x07\x10##|@'
p1223
tp1224
Rp1225
ag40
(g44
S'\xa0bO\xa7\x9fGv@'
p1226
tp1227
Rp1228
asg211
(lp1229
g40
(g44
S'\xed\x89\xfb^\xd3\xe9\xd4\xbf'
p1230
tp1231
Rp1232
ag40
(g44
S'\xc3\xcbY\x13,_\xd2\xbf'
p1233
tp1234
Rp1235
ag40
(g44
S'\x04\xc9.&nH\xd3\xbf'
p1236
tp1237
Rp1238
ag40
(g44
S'i\xd7s\xadj\xbb\xd2\xbf'
p1239
tp1240
Rp1241
ag40
(g44
S'\xd5\x86\x96\xe6P\xcc\xd3\xbf'
p1242
tp1243
Rp1244
ag40
(g44
S'w\xc9\xa71>p\xd8\xbf'
p1245
tp1246
Rp1247
ag40
(g44
S'u\xeb\xf8\n\xbb\xed\xd4\xbf'
p1248
tp1249
Rp1250
ag40
(g44
S"\xf6\x1eA\x0b'\xcc\xd0\xbf"
p1251
tp1252
Rp1253
ag40
(g44
S'\xe7\x07\xff\x88\xe9\xf1\xcc\xbf'
p1254
tp1255
Rp1256
ag40
(g44
S'\xd5\xf3;\xce\xf7\xdb\xd5\xbf'
p1257
tp1258
Rp1259
asg243
(lp1260
g40
(g44
S'\\mBdjo\xee?'
p1261
tp1262
Rp1263
ag40
(g44
S'\xcfX\x952\xcdB\xe1?'
p1264
tp1265
Rp1266
ag40
(g44
S'I\xe9\x1a{/2\x8b?'
p1267
tp1268
Rp1269
ag40
(g44
S'\xf0\xed\xe2\x99\xaa\xed\x96?'
p1270
tp1271
Rp1272
ag40
(g44
S'\x90\xfdl\xdd:\x1a\xc7?'
p1273
tp1274
Rp1275
ag40
(g44
S']vn\xe4\xc9\xfe\xca?'
p1276
tp1277
Rp1278
ag40
(g44
S'\xcfX\x952\xcdB\xe1?'
p1279
tp1280
Rp1281
ag40
(g44
S'\xe8c\nCH\xcc\xd6?'
p1282
tp1283
Rp1284
ag40
(g44
S'\x15g\xa4<\x86\x02\xe7?'
p1285
tp1286
Rp1287
ag40
(g44
S'g)\x95\xb09\x83\xc3?'
p1288
tp1289
Rp1290
assS'log-3.cnf'
p1291
(dp1292
g3
(lp1293
g5
(S'26.35754624642712697549596379'
p1294
tp1295
Rp1296
ag5
(S'26.35754624642712697549596379'
p1297
tp1298
Rp1299
ag5
(S'26.35754624642712697549596379'
p1300
tp1301
Rp1302
ag5
(S'26.35754624642712697549596379'
p1303
tp1304
Rp1305
ag5
(S'26.35754624642712697549596379'
p1306
tp1307
Rp1308
ag5
(S'26.35754624642712697549596379'
p1309
tp1310
Rp1311
ag5
(S'26.35754624642712697549596379'
p1312
tp1313
Rp1314
ag5
(S'26.35754624642712697549596379'
p1315
tp1316
Rp1317
ag5
(S'26.35754624642712697549596379'
p1318
tp1319
Rp1320
ag5
(S'26.35754624642712697549596379'
p1321
tp1322
Rp1323
asg36
(lp1324
F3.362720012664795
aF4.164183855056763
aF3.4983320236206055
aF6.116520881652832
aF3.2307631969451904
aF2.0537960529327393
aF3.8523731231689453
aF3.382927894592285
aF4.193342924118042
aF3.95727801322937
asg38
(lp1325
g40
(g44
S'\xd5\xd6\xed2G\xbd\xf2?'
p1326
tp1327
Rp1328
ag40
(g44
S'\xa5\x8c\x08\x84\x06\x0f\x08@'
p1329
tp1330
Rp1331
ag40
(g44
S'3;d\xf2 \xa2\x06@'
p1332
tp1333
Rp1334
ag40
(g44
S'I\xdf\xca,V\x1e\xd4?'
p1335
tp1336
Rp1337
ag40
(g44
S'8e\xafh#\x9a\xee?'
p1338
tp1339
Rp1340
ag40
(g44
S'\xd7q\xda_\x94\x08\xd6?'
p1341
tp1342
Rp1343
ag40
(g44
S'>,\xa6(\x91\x98\x0c@'
p1344
tp1345
Rp1346
ag40
(g44
S'\xf5\x8c\x9d\xb3)M\xc2?'
p1347
tp1348
Rp1349
ag40
(g44
S'v\x1c{\x87\x02(\xa9?'
p1350
tp1351
Rp1352
ag40
(g44
S'r\xd3\xcd\x86\x06u\xe0?'
p1353
tp1354
Rp1355
asg77
(lp1356
F0.037431236445187636
aF0.05285560593062269
aF0.08072634621521968
aF0.06735321937812429
aF0.018205668360089952
aF0.026315618914533122
aF0.009101940825508085
aF0.01156726249361306
aF0.05303052415623378
aF-0.01303121813505346
asg79
(lp1357
g40
(g44
S'\xac\xcc)\r\x99\xbcs@'
p1358
tp1359
Rp1360
ag40
(g44
S'_P\x87\xe0E\x8d{@'
p1361
tp1362
Rp1363
ag40
(g44
S'J\n\x9e\xaeI\xfbz@'
p1364
tp1365
Rp1366
ag40
(g44
S'+\x02%\x116\x10h@'
p1367
tp1368
Rp1369
ag40
(g44
S'HLL\xaf\xc0Rr@'
p1370
tp1371
Rp1372
ag40
(g44
S'\xf3\x16\x14\xdf9\xech@'
p1373
tp1374
Rp1375
ag40
(g44
S'\x94\xc0\xd2j\xb26}@'
p1376
tp1377
Rp1378
ag40
(g44
S'T\xe2\xfb\xf9\xc7\xaca@'
p1379
tp1380
Rp1381
ag40
(g44
S'>wu\x16\xab\x02W@'
p1382
tp1383
Rp1384
ag40
(g44
S'l\x84\x83\xac~\x0em@'
p1385
tp1386
Rp1387
asg111
(lp1388
g40
(g44
S'"\x83\xac\xe2\xfe\xc3L@'
p1389
tp1390
Rp1391
ag40
(g44
S'2\x00\xf0\x9c\x11\x0cW@'
p1392
tp1393
Rp1394
ag40
(g44
S'c.\xf8\x84\x9fZV@'
p1395
tp1396
Rp1397
ag40
(g44
S'\xd9=\xa0\x06*\xce=@'
p1398
tp1399
Rp1400
ag40
(g44
S'\xe4;\xcd\x826\xfeI@'
p1401
tp1402
Rp1403
ag40
(g44
S'x\xe1\x8f6\x0e1?@'
p1404
tp1405
Rp1406
ag40
(g44
S'\xa1u\xd7\xe4g Y@'
p1407
tp1408
Rp1409
ag40
(g44
S'\x81\xc4\x12\xb7\xec\x194@'
p1410
tp1411
Rp1412
ag40
(g44
S"\x8e\xdd\xe9.'\x91'@"
p1413
tp1414
Rp1415
ag40
(g44
S'\xc9\t\x1f\x93\xc1\x0fC@'
p1416
tp1417
Rp1418
asg143
(lp1419
F4.876052141189575
aF1.673839807510376
aF3.980823040008545
aF3.8732550144195557
aF2.6142051219940186
aF2.8311831951141357
aF4.389656066894531
aF1.1922399997711182
aF2.691904067993164
aF2.9382879734039307
asg145
(lp1420
F52.89033709705013
aF74.68497117996986
aF114.06632720210541
aF95.17009898128961
aF25.724609392807103
aF37.1839695262353
aF12.861042386442925
aF16.344541903475253
aF74.93213063275833
aF-18.41311122483054
asg147
(lp1421
g40
(g44
S'\x02y"\xb5\xd5\x8a\x80@'
p1422
tp1423
Rp1424
ag40
(g44
S'}Jo\\\xb0\\\x83@'
p1425
tp1426
Rp1427
ag40
(g44
S"\xd6BB\xc4\x1d'\x83@"
p1428
tp1429
Rp1430
ag40
(g44
S'\xc6\x84w13\xd8{@'
p1431
tp1432
Rp1433
ag40
(g44
S'\x80\xc5p\x18\xf6\x0b\x80@'
p1434
tp1435
Rp1436
ag40
(g44
S'L\x8f\xac\x1d\xd9\x1f|@'
p1437
tp1438
Rp1439
ag40
(g44
S'\x80\xdf\xb0\xc8b\xf9\x83@'
p1440
tp1441
Rp1442
ag40
(g44
S'H}\x04[\x95\xd3y@'
p1443
tp1444
Rp1445
ag40
(g44
S'\x9f\x01\xbb{K\x02x@'
p1446
tp1447
Rp1448
ag40
(g44
S']\x89\xaeov~}@'
p1449
tp1450
Rp1451
asg179
(lp1452
g40
(g44
S'O\xa1r\x1e\x03o}@'
p1453
tp1454
Rp1455
ag40
(g44
S'%\x08\xad\xf0\xb9\xcb~@'
p1456
tp1457
Rp1458
ag40
(g44
S'\xb6]\xb9\xfc\xe9\xa0\x80@'
p1459
tp1460
Rp1461
ag40
(g44
S'v\xcc\x05\x83\xbe\t\x80@'
p1462
tp1463
Rp1464
ag40
(g44
S'\x12\xc5ZL\\\xbc{@'
p1465
tp1466
Rp1467
ag40
(g44
S'\xa2\xa7]\xd6\xb5s|@'
p1468
tp1469
Rp1470
ag40
(g44
S'@\xa1\xb7 \x8b\xeez@'
p1471
tp1472
Rp1473
ag40
(g44
S'\xd2\xf5\xb4\x8aG&{@'
p1474
tp1475
Rp1476
ag40
(g44
S' r%N\xae\xcf~@'
p1477
tp1478
Rp1479
ag40
(g44
S'A\xf9\xd11(\xfax@'
p1480
tp1481
Rp1482
asg211
(lp1483
g40
(g44
S'\xa9\xa0\xe3\x19\x12\x8a\xd0\xbf'
p1484
tp1485
Rp1486
ag40
(g44
S'\xa0\x14\x876\xb7\x1a\xcf\xbf'
p1487
tp1488
Rp1489
ag40
(g44
S'\xc9B\x82\x7fr\x89\xcb\xbf'
p1490
tp1491
Rp1492
ag40
(g44
S'\xd4\xd0\xb6j\xa8?\xcd\xbf'
p1493
tp1494
Rp1495
ag40
(g44
S')\xabn\xfa\x0f\xc5\xd1\xbf'
p1496
tp1497
Rp1498
ag40
(g44
S'\x0c\xd8Ta0@\xd1\xbf'
p1499
tp1500
Rp1501
ag40
(g44
S'N\xc3p\xc77Z\xd2\xbf'
p1502
tp1503
Rp1504
ag40
(g44
S'\xc7\xb0tx\xd31\xd2\xbf'
p1505
tp1506
Rp1507
ag40
(g44
S'\x8d\x98\x7f\xe4\xfb\x14\xcf\xbf'
p1508
tp1509
Rp1510
ag40
(g44
S'\xa2\xe6\xe9\xf9\xd8\xc4\xd3\xbf'
p1511
tp1512
Rp1513
asg243
(lp1514
g40
(g44
S'\xe4\xc6u\xf4\x88\x06\xdb?'
p1515
tp1516
Rp1517
ag40
(g44
S')\xeb\xf3El\xca\xd2>'
p1518
tp1519
Rp1520
ag40
(g44
S'\xbaB\xce\xfc\x04\x83d?'
p1521
tp1522
Rp1523
ag40
(g44
S'\x11\x08\x1a\x15@\xf4\xf5?'
p1524
tp1525
Rp1526
ag40
(g44
S'%}\xbeI\xf92\xe2?'
p1527
tp1528
Rp1529
ag40
(g44
S'o\xf0G\xa8\xcb\xfc\xf4?'
p1530
tp1531
Rp1532
ag40
(g44
S'\xea\xc4\x99\x94\x88\xc0\x99?'
p1533
tp1534
Rp1535
ag40
(g44
S'\xbc\xe7t\x93kT\xfd?'
p1536
tp1537
Rp1538
ag40
(g44
S'N|`%\x0f@\x02@'
p1539
tp1540
Rp1541
ag40
(g44
S']P\xca\xf3\x15{\xf0?'
p1542
tp1543
Rp1544
assS'tire-3.cnf'
p1545
(dp1546
g3
(lp1547
g5
(S'26.12846440361733772531178430'
p1548
tp1549
Rp1550
ag5
(S'26.12846440361733772531178430'
p1551
tp1552
Rp1553
ag5
(S'26.12846440361733772531178430'
p1554
tp1555
Rp1556
ag5
(S'26.12846440361733772531178430'
p1557
tp1558
Rp1559
ag5
(S'26.12846440361733772531178430'
p1560
tp1561
Rp1562
ag5
(S'26.12846440361733772531178430'
p1563
tp1564
Rp1565
ag5
(S'26.12846440361733772531178430'
p1566
tp1567
Rp1568
ag5
(S'26.12846440361733772531178430'
p1569
tp1570
Rp1571
ag5
(S'26.12846440361733772531178430'
p1572
tp1573
Rp1574
ag5
(S'26.12846440361733772531178430'
p1575
tp1576
Rp1577
asg36
(lp1578
F0.02191901206970215
aF0.054162025451660156
aF0.0412600040435791
aF0.0375819206237793
aF0.04553103446960449
aF0.04361701011657715
aF0.04654502868652344
aF0.05135202407836914
aF0.03753495216369629
aF0.044825077056884766
asg38
(lp1579
g40
(g44
S'\xe4ep\xfc\x92\xa4\xf5?'
p1580
tp1581
Rp1582
ag40
(g44
S'\x14\x00\x9bk\x88\xfa\xea?'
p1583
tp1584
Rp1585
ag40
(g44
S'\xe4o=\xd2{\xc9\xf8?'
p1586
tp1587
Rp1588
ag40
(g44
S't\xaaWs\xc55\t@'
p1589
tp1590
Rp1591
ag40
(g44
S'd8\xd0\xf8fp\xfa?'
p1592
tp1593
Rp1594
ag40
(g44
S'K,\x8d\xac\x06R\xe0?'
p1595
tp1596
Rp1597
ag40
(g44
S'\x85\x97\xf8\x82\xafh\xd6?'
p1598
tp1599
Rp1600
ag40
(g44
S'\xe4o=\xd2{\xc9\xf8?'
p1601
tp1602
Rp1603
ag40
(g44
S'Sh\xc6\xe2p\xc9\x04@'
p1604
tp1605
Rp1606
ag40
(g44
S'p(\x1af\x87S\xf1?'
p1607
tp1608
Rp1609
asg77
(lp1610
F0.11223339060804437
aF0.09937260516751904
aF0.0754936082328851
aF0.14795274526943572
aF0.08146402377466941
aF0.11461450805282442
aF0.18785672411286894
aF0.14213909915398754
aF0.03229690766050706
aF0.09689142743071438
asg79
(lp1611
g40
(g44
S'*^\xa6q\xf6@g@'
p1612
tp1613
Rp1614
ag40
(g44
S'h\x88\\\xe0\x06\xc0c@'
p1615
tp1616
Rp1617
ag40
(g44
S'\xc4\x10\x02\x15\x0fWh@'
p1618
tp1619
Rp1620
ag40
(g44
S':\x97L\xba\xd5\x95n@'
p1621
tp1622
Rp1623
ag40
(g44
S'\x00\xa20>\x8d\xdeh@'
p1624
tp1625
Rp1626
ag40
(g44
S'{\x9a\x9f\xc2\x1d\x80`@'
p1627
tp1628
Rp1629
ag40
(g44
S'Td\x1e\xe4\x02\xbf\\@'
p1630
tp1631
Rp1632
ag40
(g44
S'\xc4\x10\x02\x15\x0fWh@'
p1633
tp1634
Rp1635
ag40
(g44
S'\x16e\x07\xd4\x1c\xcdl@'
p1636
tp1637
Rp1638
ag40
(g44
S'\xcc\xedw\x00\xe9\x8ce@'
p1639
tp1640
Rp1641
asg111
(lp1642
g40
(g44
S'\x99\xdb\x16\xab3\xc1C@'
p1643
tp1644
Rp1645
ag40
(g44
S'x\xe1\x8f6\x0e1?@'
p1646
tp1647
Rp1648
ag40
(g44
S'8\x7f\x06\xdb\x17$E@'
p1649
tp1650
Rp1651
ag40
(g44
S'\xc1&\x9c\x12\xe3&N@'
p1652
tp1653
Rp1654
ag40
(g44
S'\x07Q\xfe\xf2\x89\xd5E@'
p1655
tp1656
Rp1657
ag40
(g44
S']\xaf\xe1F\x99B8@'
p1658
tp1659
Rp1660
ag40
(g44
S'\x81\xc4\x12\xb7\xec\x194@'
p1661
tp1662
Rp1663
ag40
(g44
S'8\x7f\x06\xdb\x17$E@'
p1664
tp1665
Rp1666
ag40
(g44
S'\x83\xdf\xbc\xb2\x1aaK@'
p1667
tp1668
Rp1669
ag40
(g44
S'*f/c\xdd\xacA@'
p1670
tp1671
Rp1672
asg143
(lp1673
F0.04832100868225098
aF0.03611898422241211
aF0.032341957092285156
aF0.03849601745605469
aF0.03642106056213379
aF0.03813314437866211
aF0.03712892532348633
aF0.03862190246582031
aF0.0395970344543457
aF0.03667306900024414
asg145
(lp1674
F64.7586663808416
aF57.33799318165849
aF43.55981195037471
aF85.36873402046442
aF47.00474171798425
aF66.13257114647969
aF108.39332981312538
aF82.01426021185081
aF18.635315720112573
aF55.9063536275222
asg147
(lp1675
g40
(g44
S'r\x13D:n\x15r@'
p1676
tp1677
Rp1678
ag40
(g44
S'_\xafQ\xaec\xffp@'
p1679
tp1680
Rp1681
ag40
(g44
S'7P\xcd\x94zlr@'
p1682
tp1683
Rp1684
ag40
(g44
S'\xda\xce\xaa\x038ct@'
p1685
tp1686
Rp1687
ag40
(g44
S'\xb3=+\xd5\xfc\x96r@'
p1688
tp1689
Rp1690
ag40
(g44
S'\x07r\x0e8\x17\x03p@'
p1691
tp1692
Rp1693
ag40
(g44
S'\xe0\xc5\xd9\x94\x13\xc4n@'
p1694
tp1695
Rp1696
ag40
(g44
S'7P\xcd\x94zlr@'
p1697
tp1698
Rp1699
ag40
(g44
S'\xdd\xec\x9a\\\xb6\xd3s@'
p1700
tp1701
Rp1702
ag40
(g44
S'\x7f\x01CZ\xa6\x8dq@'
p1703
tp1704
Rp1705
asg179
(lp1706
g40
(g44
S'\x88z+\xf4j\xbet@'
p1707
tp1708
Rp1709
ag40
(g44
S'\xcfmY\xe0\xafGt@'
p1710
tp1711
Rp1712
ag40
(g44
S'6\xc2/r<ks@'
p1713
tp1714
Rp1715
ag40
(g44
S'\xfa\x82t\xca-\x08v@'
p1716
tp1717
Rp1718
ag40
(g44
S'\x9c\xd0\xdc\xe0Z\xa2s@'
p1719
tp1720
Rp1721
ag40
(g44
S'G\xbe\xbbwf\xd4t@'
p1722
tp1723
Rp1724
ag40
(g44
S'\x8cT\x03\x89\x92xw@'
p1725
tp1726
Rp1727
ag40
(g44
S'o\x0e\xba\xdd\x81\xd2u@'
p1728
tp1729
Rp1730
ag40
(g44
S'2\x9e\xa0\xb5q\xdcq@'
p1731
tp1732
Rp1733
ag40
(g44
S'\x01\xe3x\xe1\xc70t@'
p1734
tp1735
Rp1736
asg211
(lp1737
g40
(g44
S'\xd8\xf1\xa4\x9b\xb7r\xd6\xbf'
p1738
tp1739
Rp1740
ag40
(g44
S'\xff}\xdc\xa6mE\xd7\xbf'
p1741
tp1742
Rp1743
ag40
(g44
S'z\xce\x95l\xa9\xcc\xd8\xbf'
p1744
tp1745
Rp1746
ag40
(g44
S'%;\x9e\xc6})\xd4\xbf'
p1747
tp1748
Rp1749
ag40
(g44
S'N\x18\xb6\xaf\xd7j\xd8\xbf'
p1750
tp1751
Rp1752
ag40
(g44
S'%\x89Az\xb4K\xd6\xbf'
p1753
tp1754
Rp1755
ag40
(g44
S'\xad\x02\x97[\xb4\x9b\xd1\xbf'
p1756
tp1757
Rp1758
ag40
(g44
S'\x97(\x9a\xf9\xbd\x88\xd4\xbf'
p1759
tp1760
Rp1761
ag40
(g44
S'L\x07\xa6\x84e\x90\xdb\xbf'
p1762
tp1763
Rp1764
ag40
(g44
S'\x84\x8a+w\x14n\xd7\xbf'
p1765
tp1766
Rp1767
asg243
(lp1768
g40
(g44
S'\x7fj~Z\x90\xb8\xd4?'
p1769
tp1770
Rp1771
ag40
(g44
S'\xeb*\xa26\x0f2\xe5?'
p1772
tp1773
Rp1774
ag40
(g44
S'\xcc\xcd.E\xe1g\xce?'
p1775
tp1776
Rp1777
ag40
(g44
S'{\xae_.\x12y^?'
p1778
tp1779
Rp1780
ag40
(g44
S'F\xe6\xa9j\xf7\x86\xc9?'
p1781
tp1782
Rp1783
ag40
(g44
S'\xd0&;\xa5\xf0\x93\xf0?'
p1784
tp1785
Rp1786
ag40
(g44
S'\xe2\xe6\\U2\xce\xf4?'
p1787
tp1788
Rp1789
ag40
(g44
S'\xcc\xcd.E\xe1g\xce?'
p1790
tp1791
Rp1792
ag40
(g44
S'\xdc\xb9T{U\x8b\x8d?'
p1793
tp1794
Rp1795
ag40
(g44
S'\x136\xce\x97\xc6\x98\xde?'
p1796
tp1797
Rp1798
assS'c1355.isc'
p1799
(dp1800
g3
(lp1801
g5
(S'28.41903440295775768610651698'
p1802
tp1803
Rp1804
ag5
(S'28.41903440295775768610651698'
p1805
tp1806
Rp1807
ag5
(S'28.41903440295775768610651698'
p1808
tp1809
Rp1810
ag5
(S'28.41903440295775768610651698'
p1811
tp1812
Rp1813
ag5
(S'28.41903440295775768610651698'
p1814
tp1815
Rp1816
ag5
(S'28.41903440295775768610651698'
p1817
tp1818
Rp1819
ag5
(S'28.41903440295775768610651698'
p1820
tp1821
Rp1822
ag5
(S'28.41903440295775768610651698'
p1823
tp1824
Rp1825
ag5
(S'28.41903440295775768610651698'
p1826
tp1827
Rp1828
ag5
(S'28.41903440295775768610651698'
p1829
tp1830
Rp1831
asg36
(lp1832
F0.8249540328979492
aF0.9085230827331543
aF0.8065609931945801
aF0.8532171249389648
aF0.915532112121582
aF0.8932919502258301
aF0.908221960067749
aF0.9109950065612793
aF0.9798879623413086
aF0.8567378520965576
asg38
(lp1833
g40
(g44
S'M\x88\n-\xb3\xe5\x16@'
p1834
tp1835
Rp1836
ag40
(g44
S'_-\xc9\xe7r\r\x1b@'
p1837
tp1838
Rp1839
ag40
(g44
S'\xbd!m\xdfE\xa0\x1e@'
p1840
tp1841
Rp1842
ag40
(g44
S'\x8bt}\x93\x86\xd2\x13@'
p1843
tp1844
Rp1845
ag40
(g44
S'\xbfY\xf2\x1e\x0c\xb8\x06@'
p1846
tp1847
Rp1848
ag40
(g44
S'1\xe2\x99\xec\xc4\xcf\x1c@'
p1849
tp1850
Rp1851
ag40
(g44
S'\x99b\xf7\xa4\xcf\xb9 @'
p1852
tp1853
Rp1854
ag40
(g44
S'_-\xc9\xe7r\r\x1b@'
p1855
tp1856
Rp1857
ag40
(g44
S'\x8bt}\x93\x86\xd2\x13@'
p1858
tp1859
Rp1860
ag40
(g44
S':h[\xceVJ\x10@'
p1861
tp1862
Rp1863
asg77
(lp1864
F0.30699699321925883
aF0.21002039091358524
aF0.2011383691120334
aF0.2065006289287868
aF0.15675841416300482
aF0.2390689563201911
aF0.2350452164030633
aF0.2625549418142061
aF0.1687929961021437
aF0.23543567584805122
asg79
(lp1865
g40
(g44
S'\x8c \xbb\x1e\xde\xb2q@'
p1866
tp1867
Rp1868
ag40
(g44
S'\x12\x88w\x96\xf7\x80r@'
p1869
tp1870
Rp1871
ag40
(g44
S'\\\xbc\xf4\xe4\xe5\x19s@'
p1872
tp1873
Rp1874
ag40
(g44
S'7[\xf6_e\x01q@'
p1875
tp1876
Rp1877
ag40
(g44
S'\xd7\x86k\xd2D\xd5l@'
p1878
tp1879
Rp1880
ag40
(g44
S'ga\xf6\xb7\xb9\xcer@'
p1881
tp1882
Rp1883
ag40
(g44
S'WU\xac\xfc\xec\x85s@'
p1884
tp1885
Rp1886
ag40
(g44
S'\x12\x88w\x96\xf7\x80r@'
p1887
tp1888
Rp1889
ag40
(g44
S'7[\xf6_e\x01q@'
p1890
tp1891
Rp1892
ag40
(g44
S'\x1c\x97Y\xbc\xc9\x12p@'
p1893
tp1894
Rp1895
asg111
(lp1896
g40
(g44
S'\r\xd0\x141\x90\xedS@'
p1897
tp1898
Rp1899
ag40
(g44
S'\x93\\\x00m-\xa9U@'
p1900
tp1901
Rp1902
ag40
(g44
S'2\x00\xf0\x9c\x11\x0cW@'
p1903
tp1904
Rp1905
ag40
(g44
S'n,%\x01\xac\x8aR@'
p1906
tp1907
Rp1908
ag40
(g44
S'R\xb1\xb4\xca\x8c\x12L@'
p1909
tp1910
Rp1911
ag40
(g44
S'c.\xf8\x84\x9fZV@'
p1912
tp1913
Rp1914
ag40
(g44
S'\xea\xba\xe3\xc0<\x16X@'
p1915
tp1916
Rp1917
ag40
(g44
S'\x93\\\x00m-\xa9U@'
p1918
tp1919
Rp1920
ag40
(g44
S'n,%\x01\xac\x8aR@'
p1921
tp1922
Rp1923
ag40
(g44
S'\xe7\x9f9\xc5\x0e\xcfP@'
p1924
tp1925
Rp1926
asg143
(lp1927
F0.8553941249847412
aF0.6223480701446533
aF0.8527319431304932
aF0.8968291282653809
aF0.791478157043457
aF0.576772928237915
aF0.6768028736114502
aF1.5431768894195557
aF0.8423221111297607
aF3.2795729637145996
asg145
(lp1928
F170.38333123668866
aF116.56131695703981
aF111.63179485717853
aF114.60784905547666
aF87.00091986046768
aF132.68327075770605
aF130.45009510370014
aF145.71799270688436
aF93.68011283668976
aF130.66680009566844
asg147
(lp1929
g40
(g44
S'\x11\xaf\xe7"\xfc\x81u@'
p1930
tp1931
Rp1932
ag40
(g44
S'\xdf\xb1\xbf\xd6v\xfau@'
p1933
tp1934
Rp1935
ag40
(g44
S'\\\x06\x82{mQv@'
p1936
tp1937
Rp1938
ag40
(g44
S'3\x84EU\xef\x17u@'
p1939
tp1940
Rp1941
ag40
(g44
S'\xb8{c\xe3\xc3\x80s@'
p1942
tp1943
Rp1944
ag40
(g44
S'\xa4\xa5l\xa7\xfa&v@'
p1945
tp1946
Rp1947
ag40
(g44
S'\x8f/L\x9dE\x8dv@'
p1948
tp1949
Rp1950
ag40
(g44
S'\xdf\xb1\xbf\xd6v\xfau@'
p1951
tp1952
Rp1953
ag40
(g44
S'3\x84EU\xef\x17u@'
p1954
tp1955
Rp1956
ag40
(g44
S'\xc1\xfe\xda\xef\xe7\x86t@'
p1957
tp1958
Rp1959
asg179
(lp1960
g40
(g44
S'\xbc\xcb\x9f\x98"\x06{@'
p1961
tp1962
Rp1963
ag40
(g44
S'\xbf\xcc-\xa0\xfb\xa8w@'
p1964
tp1965
Rp1966
ag40
(g44
S'\xbb\x0f\x9dM\x1cZw@'
p1967
tp1968
Rp1969
ag40
(g44
S'\xc1\xdc\x9e8\xba\x89w@'
p1970
tp1971
Rp1972
ag40
(g44
S'\xef\xa3;=\x04\xd0u@'
p1973
tp1974
Rp1975
ag40
(g44
S'\x7f\xe4\x01&\xef\xaax@'
p1976
tp1977
Rp1978
ag40
(g44
S'\xa2\xe1\x9c\x0f4\x87x@'
p1979
tp1980
Rp1981
ag40
(g44
S"H'\x9c^}{y@"
p1982
tp1983
Rp1984
ag40
(g44
S'\xaf\xec\xaf6\xe2:v@'
p1985
tp1986
Rp1987
ag40
(g44
S'\xc67D\xaf\xab\x8ax@'
p1988
tp1989
Rp1990
asg211
(lp1991
g40
(g44
S'\x91"\xe2\xdd/!\xc5\xbf'
p1992
tp1993
Rp1994
ag40
(g44
S'Jd\xc9Hu\xc5\xd0\xbf'
p1995
tp1996
Rp1997
ag40
(g44
S' \xa2\x13/\xfbV\xd1\xbf'
p1998
tp1999
Rp2000
ag40
(g44
S'\xd7\xb6p< \xff\xd0\xbf'
p2001
tp2002
Rp2003
ag40
(g44
S'\x93J\xda4\x1a.\xd4\xbf'
p2004
tp2005
Rp2006
ag40
(g44
S'he]\x8a\r\xd3\xcd\xbf'
p2007
tp2008
Rp2009
ag40
(g44
S'\x0ci\n\x1e\xe7V\xce\xbf'
p2010
tp2011
Rp2012
ag40
(g44
S'\x12,\x8f\xd0v\xd1\xca\xbf'
p2013
tp2014
Rp2015
ag40
(g44
S'+\xea\xe3\x82\xedh\xd3\xbf'
p2016
tp2017
Rp2018
ag40
(g44
S'\xd4p\xc4\xb4\x1bJ\xce\xbf'
p2019
tp2020
Rp2021
asg243
(lp2022
g40
(g44
S'~\xaeB\xbc\xc3\xeb\xdb?'
p2023
tp2024
Rp2025
ag40
(g44
S'\xbb3\x1d\x01\xe6#\xe8?'
p2026
tp2027
Rp2028
ag40
(g44
S'H\xb3\xba\xca\xa7#\xf1?'
p2029
tp2030
Rp2031
ag40
(g44
S'\x1e\xa5\x00\xea\xac>\xcf?'
p2032
tp2033
Rp2034
ag40
(g44
S'V.\x18\xe6\x1e\xfda?'
p2035
tp2036
Rp2037
ag40
(g44
S':"?\x13\xdf\xfc\xec?'
p2038
tp2039
Rp2040
ag40
(g44
S'\x12wv%\xdc\x85\xf5?'
p2041
tp2042
Rp2043
ag40
(g44
S'\xbb3\x1d\x01\xe6#\xe8?'
p2044
tp2045
Rp2046
ag40
(g44
S'\x1e\xa5\x00\xea\xac>\xcf?'
p2047
tp2048
Rp2049
ag40
(g44
S'\xec\x96H#6\xf1\xb4?'
p2050
tp2051
Rp2052
assS'sat-grid-pbl-0015.cnf'
p2053
(dp2054
g3
(lp2055
g5
(S'125.4425195006362289639072410'
p2056
tp2057
Rp2058
ag5
(S'125.4425195006362289639072410'
p2059
tp2060
Rp2061
ag5
(S'125.4425195006362289639072410'
p2062
tp2063
Rp2064
ag5
(S'125.4425195006362289639072410'
p2065
tp2066
Rp2067
ag5
(S'125.4425195006362289639072410'
p2068
tp2069
Rp2070
ag5
(S'125.4425195006362289639072410'
p2071
tp2072
Rp2073
ag5
(S'125.4425195006362289639072410'
p2074
tp2075
Rp2076
ag5
(S'125.4425195006362289639072410'
p2077
tp2078
Rp2079
ag5
(S'125.4425195006362289639072410'
p2080
tp2081
Rp2082
ag5
(S'125.4425195006362289639072410'
p2083
tp2084
Rp2085
asg36
(lp2086
F0.016479015350341797
aF0.01840806007385254
aF0.02619004249572754
aF0.018936872482299805
aF0.019795894622802734
aF0.019315004348754883
aF0.021690845489501953
aF0.017986059188842773
aF0.0219879150390625
aF0.016391992568969727
asg38
(lp2087
g40
(g44
S'\x8ao\xcd\xc3\xd0\xfc8@'
p2088
tp2089
Rp2090
ag40
(g44
S'\xc47\xc8\x03\xceD:@'
p2091
tp2092
Rp2093
ag40
(g44
S'\x02\x16\xd6\x9d\xdf\x93@@'
p2094
tp2095
Rp2096
ag40
(g44
S'5x\\e\xfe\x94;@'
p2097
tp2098
Rp2099
ag40
(g44
S'.\xf6\xbd1\x1d7@@'
p2100
tp2101
Rp2102
ag40
(g44
S'@\x9a\xba\xd6\xa6\x9c=@'
p2103
tp2104
Rp2105
ag40
(g44
S'\xc0\n\xb2S\xc2\xb6?@'
p2106
tp2107
Rp2108
ag40
(g44
S'\x81%\xc0\xc2)@<@'
p2109
tp2110
Rp2111
ag40
(g44
S'\xddd!n\xa8\xf1@@'
p2112
tp2113
Rp2114
ag40
(g44
S'\x93k68)\x11B@'
p2115
tp2116
Rp2117
asg77
(lp2118
F0.5213634281906077
aF0.49428887734803334
aF0.6316813816134963
aF0.6296188878649599
aF0.4602276961841135
aF0.4692273663594093
aF0.5169280452262027
aF0.4058473436528659
aF0.6071808716150352
aF0.5001157484342894
asg79
(lp2119
g40
(g44
S'P\x96\n\xcf^\xcbd@'
p2120
tp2121
Rp2122
ag40
(g44
S'P\x96\n\xcf^\xcbd@'
p2123
tp2124
Rp2125
ag40
(g44
S'P\x96\n\xcf^\xcbd@'
p2126
tp2127
Rp2128
ag40
(g44
S'P\x96\n\xcf^\xcbd@'
p2129
tp2130
Rp2131
ag40
(g44
S'P\x96\n\xcf^\xcbd@'
p2132
tp2133
Rp2134
ag40
(g44
S'P\x96\n\xcf^\xcbd@'
p2135
tp2136
Rp2137
ag40
(g44
S'P\x96\n\xcf^\xcbd@'
p2138
tp2139
Rp2140
ag40
(g44
S'P\x96\n\xcf^\xcbd@'
p2141
tp2142
Rp2143
ag40
(g44
S'P\x96\n\xcf^\xcbd@'
p2144
tp2145
Rp2146
ag40
(g44
S'P\x96\n\xcf^\xcbd@'
p2147
tp2148
Rp2149
asg111
(lp2150
g40
(g44
S'\x83\xdf\xbc\xb2\x1aa[@'
p2151
tp2152
Rp2153
ag40
(g44
S'R\xb1\xb4\xca\x8c\x12\\@'
p2154
tp2155
Rp2156
ag40
(g44
S'`\xca\x8bB\xc7\x89_@'
p2157
tp2158
Rp2159
ag40
(g44
S'"\x83\xac\xe2\xfe\xc3\\@'
p2160
tp2161
Rp2162
ag40
(g44
S'x\xe1\x8f6\x0e1_@'
p2163
tp2164
Rp2165
ag40
(g44
S'\xd9=\xa0\x06*\xce]@'
p2166
tp2167
Rp2168
ag40
(g44
S'\x90\xf8\x93*U\xd8^@'
p2169
tp2170
Rp2171
ag40
(g44
S'\nl\xa8\xee\xb7\x1c]@'
p2172
tp2173
Rp2174
ag40
(g44
S'H\xb3\x87N\x80\xe2_@'
p2175
tp2176
Rp2177
ag40
(g44
S'\xff\xb6=\xb9Uv`@'
p2178
tp2179
Rp2180
asg143
(lp2181
F0.027328968048095703
aF0.02454400062561035
aF0.028599023818969727
aF0.024218082427978516
aF0.026913881301879883
aF0.024647951126098633
aF0.036607980728149414
aF0.021975040435791016
aF0.04118990898132324
aF0.027662992477416992
asg145
(lp2182
F125.12722276574584
aF118.629330563528
aF151.6035315872391
aF151.1085330875904
aF110.45464708418724
aF112.61456792625823
aF124.06273085428866
aF97.40336247668782
aF145.72340918760844
aF120.02777962422945
asg147
(lp2183
g40
(g44
S'P\x96\n\xcf^\xcbd@'
p2184
tp2185
Rp2186
ag40
(g44
S'P\x96\n\xcf^\xcbd@'
p2187
tp2188
Rp2189
ag40
(g44
S'P\x96\n\xcf^\xcbd@'
p2190
tp2191
Rp2192
ag40
(g44
S'P\x96\n\xcf^\xcbd@'
p2193
tp2194
Rp2195
ag40
(g44
S'P\x96\n\xcf^\xcbd@'
p2196
tp2197
Rp2198
ag40
(g44
S'P\x96\n\xcf^\xcbd@'
p2199
tp2200
Rp2201
ag40
(g44
S'P\x96\n\xcf^\xcbd@'
p2202
tp2203
Rp2204
ag40
(g44
S'P\x96\n\xcf^\xcbd@'
p2205
tp2206
Rp2207
ag40
(g44
S'P\x96\n\xcf^\xcbd@'
p2208
tp2209
Rp2210
ag40
(g44
S'P\x96\n\xcf^\xcbd@'
p2211
tp2212
Rp2213
asg179
(lp2214
g40
(g44
S'\xbc\xb3\x93\xd2\xad\x96r@'
p2215
tp2216
Rp2217
ag40
(g44
S'd\\\xc3t\xb6.r@'
p2218
tp2219
Rp2220
ag40
(g44
S'~e\x93\xc8L>t@'
p2221
tp2222
Rp2223
ag40
(g44
S'\x88l\x07Ea6t@'
p2224
tp2225
Rp2226
ag40
(g44
S'\xac\xed\xdb\xf3\xea\xabq@'
p2227
tp2228
Rp2229
ag40
(g44
S'\xf8\x17\x04\xfdy\xceq@'
p2230
tp2231
Rp2232
ag40
(g44
S'\xb2\n\xe8\xa9\xa5\x85r@'
p2233
tp2234
Rp2235
ag40
(g44
S'\xb3\xed\x0c\xe4\x18\xdbp@'
p2236
tp2237
Rp2238
ag40
(g44
S'>\xb7Y\xcd7\xe0s@'
p2239
tp2240
Rp2241
ag40
(g44
S'\xbf\xa9\xe2\x80\x16Er@'
p2242
tp2243
Rp2244
asg211
(lp2245
g40
(g44
S"\xf3\x86a\tR'\xc9\xbf"
p2246
tp2247
Rp2248
ag40
(g44
S'~\xa3\x97\xd4\x7f\x9e\xcc\xbf'
p2249
tp2250
Rp2251
ag40
(g44
S'\x1a#\xa6\xf0\xd7\x10\xb6\xbf'
p2252
tp2253
Rp2254
ag40
(g44
S'<\xde\xd8\xd7\x02\x98\xb6\xbf'
p2255
tp2256
Rp2257
ag40
(g44
S'\xb02\x16\xddN}\xd0\xbf'
p2258
tp2259
Rp2260
ag40
(g44
S'\xe4s\xa2\x05\xb7\xd3\xcf\xbf'
p2261
tp2262
Rp2263
ag40
(g44
S'O\x07\xc5\xb9\xa8\xb8\xc9\xbf'
p2264
tp2265
Rp2266
ag40
(g44
S'<\xdd\x00\x98F\xf8\xd3\xbf'
p2267
tp2268
Rp2269
ag40
(g44
S'"\xe3\xd3I\x82V\xbc\xbf'
p2270
tp2271
Rp2272
ag40
(g44
S'\x8917~\x90\xdf\xcb\xbf'
p2273
tp2274
Rp2275
asg243
(lp2276
g40
(g44
S'\xd9-\xe7\xc6\xbcW%@'
p2277
tp2278
Rp2279
ag40
(g44
S"E\x1e\xf2NC\x07'@"
p2280
tp2281
Rp2282
ag40
(g44
S'Ns\x92\xf3p50@'
p2283
tp2284
Rp2285
ag40
(g44
S'\x1f\xff/\x1a0\xc7(@'
p2286
tp2287
Rp2288
ag40
(g44
S'P\xb7\xb92\x12h/@'
p2289
tp2290
Rp2291
ag40
(g44
S"'S\x0c\t\xd3\x85+@"
p2292
tp2293
Rp2294
ag40
(g44
S'\x1eD\x1b\x0f\\i.@'
p2295
tp2296
Rp2297
ag40
(g44
S'\xb3\t\x02\xd9L\xad)@'
p2298
tp2299
Rp2300
ag40
(g44
S'\x02i.\x96\xe5\xb80@'
p2301
tp2302
Rp2303
ag40
(g44
S'i~h0\x90O2@'
p2304
tp2305
Rp2306
assS'sat-grid-pbl-0025.cnf'
p2307
(dp2308
g3
(lp2309
g5
(S'348.2810069124694245655975633'
p2310
tp2311
Rp2312
ag5
(S'348.2810069124694245655975633'
p2313
tp2314
Rp2315
ag5
(S'348.2810069124694245655975633'
p2316
tp2317
Rp2318
ag5
(S'348.2810069124694245655975633'
p2319
tp2320
Rp2321
ag5
(S'348.2810069124694245655975633'
p2322
tp2323
Rp2324
ag5
(S'348.2810069124694245655975633'
p2325
tp2326
Rp2327
ag5
(S'348.2810069124694245655975633'
p2328
tp2329
Rp2330
ag5
(S'348.2810069124694245655975633'
p2331
tp2332
Rp2333
ag5
(S'348.2810069124694245655975633'
p2334
tp2335
Rp2336
ag5
(S'348.2810069124694245655975633'
p2337
tp2338
Rp2339
asg36
(lp2340
F0.0967719554901123
aF0.14998793601989746
aF0.041177988052368164
aF0.17380619049072266
aF0.05924081802368164
aF0.09163308143615723
aF0.0656900405883789
aF0.13513994216918945
aF0.11873078346252441
aF0.11835598945617676
asg38
(lp2341
g40
(g44
S'\x14\xdfZ\x9d\x8e]V@'
p2342
tp2343
Rp2344
ag40
(g44
S'\xa7\xe4\xad\xe37\xefT@'
p2345
tp2346
Rp2347
ag40
(g44
S'\xdd\x9e\xb5\x92D\x19W@'
p2348
tp2349
Rp2350
ag40
(g44
S']\xac\x10\xc8\xc2\xd2U@'
p2351
tp2352
Rp2353
ag40
(g44
S'\xd4\x8f\xceH\xd6\x00V@'
p2354
tp2355
Rp2356
ag40
(g44
S'm9\xfd\xb5\x08\xbbV@'
p2357
tp2358
Rp2359
ag40
(g44
S'\xdaY\x92\x0bc&Z@'
p2360
tp2361
Rp2362
ag40
(g44
S'\xdd\x9e\xb5\x92D\x19W@'
p2363
tp2364
Rp2365
ag40
(g44
S'?:P/Y\x1cU@'
p2366
tp2367
Rp2368
ag40
(g44
S'\x98\xa3s\xae\xc5\x99X@'
p2369
tp2370
Rp2371
asg77
(lp2372
F0.6015032094417637
aF0.5937929354513851
aF0.5477194196257421
aF0.5439485827892143
aF0.6090460774450156
aF0.5928425936674361
aF0.5250257444187715
aF0.5824618277290396
aF0.5407214538293021
aF0.6206836532105214
asg79
(lp2373
g40
(g44
S'\x8c\xab\xb3\r\xbb(|@'
p2374
tp2375
Rp2376
ag40
(g44
S'\x8c\xab\xb3\r\xbb(|@'
p2377
tp2378
Rp2379
ag40
(g44
S'\x8c\xab\xb3\r\xbb(|@'
p2380
tp2381
Rp2382
ag40
(g44
S'\x8c\xab\xb3\r\xbb(|@'
p2383
tp2384
Rp2385
ag40
(g44
S'\x8c\xab\xb3\r\xbb(|@'
p2386
tp2387
Rp2388
ag40
(g44
S'\x8c\xab\xb3\r\xbb(|@'
p2389
tp2390
Rp2391
ag40
(g44
S'\x8c\xab\xb3\r\xbb(|@'
p2392
tp2393
Rp2394
ag40
(g44
S'\x8c\xab\xb3\r\xbb(|@'
p2395
tp2396
Rp2397
ag40
(g44
S'\x8c\xab\xb3\r\xbb(|@'
p2398
tp2399
Rp2400
ag40
(g44
S'\x8c\xab\xb3\r\xbb(|@'
p2401
tp2402
Rp2403
asg111
(lp2404
g40
(g44
S'\xacs\x04atPu@'
p2405
tp2406
Rp2407
ag40
(g44
S'\xdc\xa1\x0cI\x02\x9ft@'
p2408
tp2409
Rp2410
ag40
(g44
S'\x93\\\x00m-\xa9u@'
p2411
tp2412
Rp2413
ag40
(g44
S'\xfe\x84\x07\x98\xe9\ru@'
p2414
tp2415
Rp2416
ag40
(g44
S'8\x7f\x06\xdb\x17$u@'
p2417
tp2418
Rp2419
ag40
(g44
S' h\x02\xe7\xd0|u@'
p2420
tp2421
Rp2422
ag40
(g44
S'2\x00\xf0\x9c\x11\x0cw@'
p2423
tp2424
Rp2425
ag40
(g44
S'\x93\\\x00m-\xa9u@'
p2426
tp2427
Rp2428
ag40
(g44
S'\x16\x9c\x0b\x8c0\xb5t@'
p2429
tp2430
Rp2431
ag40
(g44
S'c.\xf8\x84\x9fZv@'
p2432
tp2433
Rp2434
asg143
(lp2435
F0.3505058288574219
aF0.09200501441955566
aF10.17561388015747
aF2.368212938308716
aF0.19906091690063477
aF2.8040480613708496
aF0.8277380466461182
aF0.6499528884887695
aF0.42482495307922363
aF0.35042691230773926
asg145
(lp2436
F390.9770861371464
aF385.9654080434003
aF356.01762275673235
aF353.5665788129893
aF395.8799503392601
aF385.34768588383344
aF341.2667338722015
aF378.6001880238758
aF351.4689449890464
aF403.44437458683893
asg147
(lp2437
g40
(g44
S'\x8c\xab\xb3\r\xbb(|@'
p2438
tp2439
Rp2440
ag40
(g44
S'\x8c\xab\xb3\r\xbb(|@'
p2441
tp2442
Rp2443
ag40
(g44
S'\x8c\xab\xb3\r\xbb(|@'
p2444
tp2445
Rp2446
ag40
(g44
S'\x8c\xab\xb3\r\xbb(|@'
p2447
tp2448
Rp2449
ag40
(g44
S'\x8c\xab\xb3\r\xbb(|@'
p2450
tp2451
Rp2452
ag40
(g44
S'\x8c\xab\xb3\r\xbb(|@'
p2453
tp2454
Rp2455
ag40
(g44
S'\x8c\xab\xb3\r\xbb(|@'
p2456
tp2457
Rp2458
ag40
(g44
S'\x8c\xab\xb3\r\xbb(|@'
p2459
tp2460
Rp2461
ag40
(g44
S'\x8c\xab\xb3\r\xbb(|@'
p2462
tp2463
Rp2464
ag40
(g44
S'\x8c\xab\xb3\r\xbb(|@'
p2465
tp2466
Rp2467
asg179
(lp2468
g40
(g44
S'&\xf3rm\x1f\x14\x85@'
p2469
tp2470
Rp2471
ag40
(g44
S'e\xbd\xc3\x82\x07\xec\x84@'
p2472
tp2473
Rp2474
ag40
(g44
S'r\xeeOrr\xfc\x83@'
p2475
tp2476
Rp2477
ag40
(g44
S'\xf6\x92b\xb5\xd6\xe8\x83@'
p2478
tp2479
Rp2480
ag40
(g44
S'\x9c\xd9P~X;\x85@'
p2481
tp2482
Rp2483
ag40
(g44
S'\x90\xf2rj\x16\xe7\x84@'
p2484
tp2485
Rp2486
ag40
(g44
S'\x86\xdeG\xa0p\x86\x83@'
p2487
tp2488
Rp2489
ag40
(g44
S'\xc6\x7fJ\x8a\x1b\xb1\x84@'
p2490
tp2491
Rp2492
ag40
(g44
S'j\x8c$\xc1\x0e\xd8\x83@'
p2493
tp2494
Rp2495
ag40
(g44
S'\xf8\xfc,o\xdcw\x85@'
p2496
tp2497
Rp2498
asg211
(lp2499
g40
(g44
S'Y?\xdc;=(\xc5?'
p2500
tp2501
Rp2502
ag40
(g44
S'\x0e^\x8b\xc4\x96+\xc4?'
p2503
tp2504
Rp2505
ag40
(g44
S'3\xebg5\xb4\x8b\xbc?'
p2506
tp2507
Rp2508
ag40
(g44
S'\xdc\xb5\x83\x10\x94\x94\xbb?'
p2509
tp2510
Rp2511
ag40
(g44
S'\xcal\x8eeg\x1f\xc6?'
p2512
tp2513
Rp2514
ag40
(g44
S'\xf2u\x1a\xb9r\x0c\xc4?'
p2515
tp2516
Rp2517
ag40
(g44
S'\xf8\xe1\x90\x84s\xbc\xb6?'
p2518
tp2519
Rp2520
ag40
(g44
S'\x7f7\xff\x8bJ\xb8\xc2?'
p2521
tp2522
Rp2523
ag40
(g44
S'O\xf4+\xd3\x15\xc1\xba?'
p2524
tp2525
Rp2526
ag40
(g44
S'\xeb\x127u\xbe\x9c\xc7?'
p2527
tp2528
Rp2529
asg243
(lp2530
g40
(g44
S'\x9f\xb0MX3\xd9M@'
p2531
tp2532
Rp2533
ag40
(g44
S'u\x0f\xdc\x13\xe9\x84K@'
p2534
tp2535
Rp2536
ag40
(g44
S'[\x06\x8f\xabm\x0cO@'
p2537
tp2538
Rp2539
ag40
(g44
S'\x93jP\xdf\xc0\xf6L@'
p2540
tp2541
Rp2542
ag40
(g44
S"\n'\xefz\xdbAM@"
p2543
tp2544
Rp2545
ag40
(g44
S'eP\xd8\xbd\x0erN@'
p2546
tp2547
Rp2548
ag40
(g44
S'x\xea\xbb\x1f\xf2\nR@'
p2549
tp2550
Rp2551
ag40
(g44
S'[\x06\x8f\xabm\x0cO@'
p2552
tp2553
Rp2554
ag40
(g44
S'/\xb0CE\x1f\xceK@'
p2555
tp2556
Rp2557
ag40
(g44
S'\x10^\x11Z\x86\xc2P@'
p2558
tp2559
Rp2560
assS'c499.isc'
p2561
(dp2562
g3
(lp2563
g5
(S'28.41903440295775768610651698'
p2564
tp2565
Rp2566
ag5
(S'28.41903440295775768610651698'
p2567
tp2568
Rp2569
ag5
(S'28.41903440295775768610651698'
p2570
tp2571
Rp2572
ag5
(S'28.41903440295775768610651698'
p2573
tp2574
Rp2575
ag5
(S'28.41903440295775768610651698'
p2576
tp2577
Rp2578
ag5
(S'28.41903440295775768610651698'
p2579
tp2580
Rp2581
ag5
(S'28.41903440295775768610651698'
p2582
tp2583
Rp2584
ag5
(S'28.41903440295775768610651698'
p2585
tp2586
Rp2587
ag5
(S'28.41903440295775768610651698'
p2588
tp2589
Rp2590
ag5
(S'28.41903440295775768610651698'
p2591
tp2592
Rp2593
asg36
(lp2594
F0.5914199352264404
aF0.28969597816467285
aF0.28800106048583984
aF0.33223700523376465
aF0.49867701530456543
aF0.46181607246398926
aF0.4900341033935547
aF0.5131211280822754
aF0.47425198554992676
aF0.6039519309997559
asg38
(lp2595
g40
(g44
S'\x84\x8cA\xb3\x9e\xd3\x12@'
p2596
tp2597
Rp2598
ag40
(g44
S'/\xa9i\x881\xee\x1d@'
p2599
tp2600
Rp2601
ag40
(g44
S'\t\x89\xf8\t\x87R\x1f@'
p2602
tp2603
Rp2604
ag40
(g44
S'\x81\xab)>\xf5\x91\x1c@'
p2605
tp2606
Rp2607
ag40
(g44
S'\x8dZ\x9c9\x05\xb5\x10@'
p2608
tp2609
Rp2610
ag40
(g44
S'\x8b\xffB\xab\xd7\xad\x18@'
p2611
tp2612
Rp2613
ag40
(g44
S'\x96\x8a>>\x00r\x17@'
p2614
tp2615
Rp2616
ag40
(g44
S'\xafV\x96O\xc8\xf1\x19@'
p2617
tp2618
Rp2619
ag40
(g44
S'\x81\x14\xb1g\xd6`#@'
p2620
tp2621
Rp2622
ag40
(g44
S'\x8a%k\xe1z_ @'
p2623
tp2624
Rp2625
asg77
(lp2626
F0.2449070574170713
aF0.2953365276783878
aF0.35422304069946303
aF0.33466481046990243
aF0.2737264366924295
aF0.20926177513031405
aF0.2209296656344967
aF0.43861902360506017
aF0.3647116187033158
aF0.31222320854708857
asg79
(lp2627
g40
(g44
S'\xd5\x9a\x85\xca\x84\x1fb@'
p2628
tp2629
Rp2630
ag40
(g44
S'\x06\r|\x8e\x13\xd0c@'
p2631
tp2632
Rp2633
ag40
(g44
S'\xc8\x97\x17\x96N\xf4c@'
p2634
tp2635
Rp2636
ag40
(g44
S'\xe4\xe5\xff\xca\x8d\xa9c@'
p2637
tp2638
Rp2639
ag40
(g44
S'fm\xac\x93\xe1\xa3a@'
p2640
tp2641
Rp2642
ag40
(g44
S"\tQ\x9e\x8b\xfb'c@"
p2643
tp2644
Rp2645
ag40
(g44
S'\x0e\xa7\x1f\xb4\x07\xf8b@'
p2646
tp2647
Rp2648
ag40
(g44
S'\x1c\x1b\x8a\xbf\x88Uc@'
p2649
tp2650
Rp2651
ag40
(g44
S'o\x8f!q\xce\x87d@'
p2652
tp2653
Rp2654
ag40
(g44
S'e"\xbb\x9eD\x16d@'
p2655
tp2656
Rp2657
asg111
(lp2658
g40
(g44
S'v\xc6\xe5:\xe0\xe9G@'
p2659
tp2660
Rp2661
ag40
(g44
S'\xc1&\x9c\x12\xe3&N@'
p2662
tp2663
Rp2664
ag40
(g44
S'\x90\xf8\x93*U\xd8N@'
p2665
tp2666
Rp2667
ag40
(g44
S'\xf1T\xa4\xfapuM@'
p2668
tp2669
Rp2670
ag40
(g44
S'\xd7"\xf6\n\xfc\x86F@'
p2671
tp2672
Rp2673
ag40
(g44
S'\x83\xdf\xbc\xb2\x1aaK@'
p2674
tp2675
Rp2676
ag40
(g44
S'\xb4\r\xc5\x9a\xa8\xafJ@'
p2677
tp2678
Rp2679
ag40
(g44
S'R\xb1\xb4\xca\x8c\x12L@'
p2680
tp2681
Rp2682
ag40
(g44
S"\xcf\x885\xd1\xc7'Q@"
p2683
tp2684
Rp2685
ag40
(g44
S'`\xca\x8bB\xc7\x89O@'
p2686
tp2687
Rp2688
asg143
(lp2689
F0.13542795181274414
aF0.366804838180542
aF0.10870695114135742
aF0.8197288513183594
aF0.19609880447387695
aF0.2590482234954834
aF0.2810509204864502
aF0.2426900863647461
aF0.3757209777832031
aF0.45789289474487305
asg145
(lp2690
F59.51241495234833
aF71.76677622584823
aF86.07619888996952
aF81.32354894418629
aF66.51552411626038
aF50.85061135666631
aF53.6859087491827
aF106.58442273602962
aF88.62492334490574
aF75.87023967694252
asg147
(lp2691
g40
(g44
S';\xc59\x9c\xce\xd7d@'
p2692
tp2693
Rp2694
ag40
(g44
S'\xfe\x84\x07\x98\xe9\re@'
p2695
tp2696
Rp2697
ag40
(g44
S'\xfe\x84\x07\x98\xe9\re@'
p2698
tp2699
Rp2700
ag40
(g44
S'\xfe\x84\x07\x98\xe9\re@'
p2701
tp2702
Rp2703
ag40
(g44
S'\x85G\x10y7\xb5d@'
p2704
tp2705
Rp2706
ag40
(g44
S'\x94\xf88;\x01\te@'
p2707
tp2708
Rp2709
ag40
(g44
S'd\x97\xc3\x84f\x03e@'
p2710
tp2711
Rp2712
ag40
(g44
S'\xa1Q\xd5\xd8\x7f\x0ce@'
p2713
tp2714
Rp2715
ag40
(g44
S'\xfe\x84\x07\x98\xe9\re@'
p2716
tp2717
Rp2718
ag40
(g44
S'\xfe\x84\x07\x98\xe9\re@'
p2719
tp2720
Rp2721
asg179
(lp2722
g40
(g44
S'\xc6 \xc6\x00\t\x1cm@'
p2723
tp2724
Rp2725
ag40
(g44
S'h\x02\x07\xbb,\xa4n@'
p2726
tp2727
Rp2728
ag40
(g44
S'\xe0q\xb1\xc2\t7p@'
p2729
tp2730
Rp2731
ag40
(g44
S'\x8c\x14\x0c\xd0\xfd\xd5o@'
p2732
tp2733
Rp2734
ag40
(g44
S'\x04\xcb)y"\xfcm@'
p2735
tp2736
Rp2737
ag40
(g44
S';&\n\x82\xdb\x06l@'
p2738
tp2739
Rp2740
ag40
(g44
S'\x92\x0f\xa3C\x96al@'
p2741
tp2742
Rp2743
ag40
(g44
S'\xe2O\x05r+\x7fq@'
p2744
tp2745
Rp2746
ag40
(g44
S'W\xb9\xfcU\xd1_p@'
p2747
tp2748
Rp2749
ag40
(g44
S"h[\x9cM|'o@"
p2750
tp2751
Rp2752
asg211
(lp2753
g40
(g44
S'\xb3Jf\x00K\xfc\xdd\xbf'
p2754
tp2755
Rp2756
ag40
(g44
S'\x02\x91\x04y\x0e\xc2\xda\xbf'
p2757
tp2758
Rp2759
ag40
(g44
S'I\x1a\x1e\x89B\xfd\xd6\xbf'
p2760
tp2761
Rp2762
ag40
(g44
S'\x17"\xeb\xb2\xb3=\xd8\xbf'
p2763
tp2764
Rp2765
ag40
(g44
S'\xf2\xa7\x87\xc3\x1d$\xdc\xbf'
p2766
tp2767
Rp2768
ag40
(g44
S'\x12\xdah\x13\'"\xe0\xbf'
p2769
tp2770
Rp2771
ag40
(g44
S'Qv\xc9x#\x85\xdf\xbf'
p2772
tp2773
Rp2774
ag40
(g44
S'\xd1\x87~ \x84\x96\xd1\xbf'
p2775
tp2776
Rp2777
ag40
(g44
S'\xb2\x95=@jQ\xd6\xbf'
p2778
tp2779
Rp2780
ag40
(g44
S'\x8d%\x80\x99b\xad\xd9\xbf'
p2781
tp2782
Rp2783
asg243
(lp2784
g40
(g44
S'\xa0\xbb(h\x14~\xc8?'
p2785
tp2786
Rp2787
ag40
(g44
S'\x1d\xd1*\x8e\xc7\x1b\xf0?'
p2788
tp2789
Rp2790
ag40
(g44
S'\x88\x1fu\xe0\xdc0\xf2?'
p2791
tp2792
Rp2793
ag40
(g44
S'\xcd\x1682.N\xec?'
p2794
tp2795
Rp2796
ag40
(g44
S'\xb2\x19+\xe5\xe0\xdd\xb8?'
p2797
tp2798
Rp2799
ag40
(g44
S'"\xdd\xa9\xd2\xc5\x16\xe2?'
p2800
tp2801
Rp2802
ag40
(g44
S'\xdf.\xd1\xa4\x17a\xde?'
p2803
tp2804
Rp2805
ag40
(g44
S'A4b\x8d\xc9=\xe5?'
p2806
tp2807
Rp2808
ag40
(g44
S'^\xaaer0\x80\xfe?'
p2809
tp2810
Rp2811
ag40
(g44
S'\xad\xf6\xfa\x0fWf\xf4?'
p2812
tp2813
Rp2814
assS'c432.isc'
p2815
(dp2816
g3
(lp2817
g5
(S'24.95329850015803113902035637'
p2818
tp2819
Rp2820
ag5
(S'24.95329850015803113902035637'
p2821
tp2822
Rp2823
ag5
(S'24.95329850015803113902035637'
p2824
tp2825
Rp2826
ag5
(S'24.95329850015803113902035637'
p2827
tp2828
Rp2829
ag5
(S'24.95329850015803113902035637'
p2830
tp2831
Rp2832
ag5
(S'24.95329850015803113902035637'
p2833
tp2834
Rp2835
ag5
(S'24.95329850015803113902035637'
p2836
tp2837
Rp2838
ag5
(S'24.95329850015803113902035637'
p2839
tp2840
Rp2841
ag5
(S'24.95329850015803113902035637'
p2842
tp2843
Rp2844
ag5
(S'24.95329850015803113902035637'
p2845
tp2846
Rp2847
asg36
(lp2848
F0.028959035873413086
aF0.01782703399658203
aF0.012240171432495117
aF0.04373288154602051
aF0.039479970932006836
aF0.037346839904785156
aF0.02870488166809082
aF0.04491090774536133
aF0.04143095016479492
aF0.0524139404296875
asg38
(lp2849
g40
(g44
S'_\x825(8\xa6\x11@'
p2850
tp2851
Rp2852
ag40
(g44
S'\xe5\x05\xc3\xd9f\xab\x16@'
p2853
tp2854
Rp2855
ag40
(g44
S'O\x19_\x8f\x98\xfb"@'
p2856
tp2857
Rp2858
ag40
(g44
S'\x14\x0e6\xc6\xba\x14\x14@'
p2859
tp2860
Rp2861
ag40
(g44
S'\x0c\xf77\xef\x83\x97\x0c@'
p2862
tp2863
Rp2864
ag40
(g44
S'_\x825(8\xa6\x11@'
p2865
tp2866
Rp2867
ag40
(g44
S'x\xfcJ\xa1\x0b[\x15@'
p2868
tp2869
Rp2870
ag40
(g44
S'_\x825(8\xa6\x11@'
p2871
tp2872
Rp2873
ag40
(g44
S'\xda9\x82a;Q\x1c@'
p2874
tp2875
Rp2876
ag40
(g44
S'0\xfc\xf4\xfeM\x83\x08@'
p2877
tp2878
Rp2879
asg77
(lp2880
F0.20317588362749545
aF0.31673927072546365
aF0.21902620920097002
aF0.3931124250839979
aF0.3126359015571885
aF0.3895131779666104
aF0.22693495388319987
aF0.27087598160509296
aF0.28021976533138365
aF0.2108919207803536
asg79
(lp2881
g40
(g44
S'\xca\x061\x98\xa3.^@'
p2882
tp2883
Rp2884
ag40
(g44
S'\xc7\xf8\xdcs\x8a\xa1_@'
p2885
tp2886
Rp2887
ag40
(g44
S'\x06U\xff\x8a\xb5\xda`@'
p2888
tp2889
Rp2890
ag40
(g44
S'\x1a[\x0e{\xf9\xf3^@'
p2891
tp2892
Rp2893
ag40
(g44
S'#\xb0\x16d/\xd8\\@'
p2894
tp2895
Rp2896
ag40
(g44
S'\xca\x061\x98\xa3.^@'
p2897
tp2898
Rp2899
ag40
(g44
S'\x06\xf4V\x99\xaeM_@'
p2900
tp2901
Rp2902
ag40
(g44
S'\xca\x061\x98\xa3.^@'
p2903
tp2904
Rp2905
ag40
(g44
S'\x85m^\xfb\x05\\`@'
p2906
tp2907
Rp2908
ag40
(g44
S'Wph[`\xd3[@'
p2909
tp2910
Rp2911
asg111
(lp2912
g40
(g44
S'P\x96\n\xcf^\xcbD@'
p2913
tp2914
Rp2915
ag40
(g44
S"\x8e\xdd\xe9.'\x91G@"
p2916
tp2917
Rp2918
ag40
(g44
S'\xa9\x0f\x98\x1e\x9c\x7fN@'
p2919
tp2920
Rp2921
ag40
(g44
S'\xef9\xfa\xfeB.F@'
p2922
tp2923
Rp2924
ag40
(g44
S'\xe2 #\x87\x08\xb7B@'
p2925
tp2926
Rp2927
ag40
(g44
S'P\x96\n\xcf^\xcbD@'
p2928
tp2929
Rp2930
ag40
(g44
S'\xbe\x0b\xf2\x16\xb5\xdfF@'
p2931
tp2932
Rp2933
ag40
(g44
S'P\x96\n\xcf^\xcbD@'
p2934
tp2935
Rp2936
ag40
(g44
S'\xcc$\xc9\x8e\xefVJ@'
p2937
tp2938
Rp2939
ag40
(g44
S'C}3W$TA@'
p2940
tp2941
Rp2942
asg143
(lp2943
F0.03382086753845215
aF0.03614997863769531
aF0.029392004013061523
aF0.03993701934814453
aF0.08937716484069824
aF0.029006004333496094
aF0.03205609321594238
aF0.02351093292236328
aF0.03426194190979004
aF0.1030879020690918
asg145
(lp2944
F39.82247319098911
aF62.08089706219087
aF42.929137003390125
aF77.05003531646359
aF61.276636705208944
aF76.34458288145564
aF44.47925096110718
aF53.091692394598226
aF54.9230740049512
aF41.334816472949306
asg147
(lp2945
g40
(g44
S'\xff\xaaj9\xee\xf6`@'
p2946
tp2947
Rp2948
ag40
(g44
S'[\x947Kk\xfb`@'
p2949
tp2950
Rp2951
ag40
(g44
S'[\x947Kk\xfb`@'
p2952
tp2953
Rp2954
ag40
(g44
S'[\x947Kk\xfb`@'
p2955
tp2956
Rp2957
ag40
(g44
S'\xfc\x15,\x9e\x99\xdc`@'
p2958
tp2959
Rp2960
ag40
(g44
S'\xff\xaaj9\xee\xf6`@'
p2961
tp2962
Rp2963
ag40
(g44
S'[\x947Kk\xfb`@'
p2964
tp2965
Rp2966
ag40
(g44
S'\xff\xaaj9\xee\xf6`@'
p2967
tp2968
Rp2969
ag40
(g44
S'[\x947Kk\xfb`@'
p2970
tp2971
Rp2972
ag40
(g44
S'\x8a^0\xf6\xdd\xbd`@'
p2973
tp2974
Rp2975
asg179
(lp2976
g40
(g44
S'kt\x9a\xb1\xa7ph@'
p2977
tp2978
Rp2979
ag40
(g44
S'\x92\xde\xbd\xb3\xec8k@'
p2980
tp2981
Rp2982
ag40
(g44
S'&\xb2\xd4{\x11\xd4h@'
p2983
tp2984
Rp2985
ag40
(g44
S'~K\xf8\xe1\xef\x17m@'
p2986
tp2987
Rp2988
ag40
(g44
S'\xf5\x87\x8630\x1fk@'
p2989
tp2990
Rp2991
ag40
(g44
S'\xba#\xfc\xd0\\\x01m@'
p2992
tp2993
Rp2994
ag40
(g44
S'\x1e\xe1j\x04\xac\x05i@'
p2995
tp2996
Rp2997
ag40
(g44
S'\x05\xd31#E\x19j@'
p2998
tp2999
Rp3000
ag40
(g44
S'\xcc1\xcd\xd0\xdfSj@'
p3001
tp3002
Rp3003
ag40
(g44
S'p\x7fW\xcf\x0c\xa1h@'
p3004
tp3005
Rp3006
asg211
(lp3007
g40
(g44
S'\xc0]\xc9\xba\x1f\xeb\xe2\xbf'
p3008
tp3009
Rp3010
ag40
(g44
S'\x8d\xc5+\x17\xa0\x91\xde\xbf'
p3011
tp3012
Rp3013
ag40
(g44
S'~[\n0Gi\xe2\xbf'
p3014
tp3015
Rp3016
ag40
(g44
S'\x9b\xfc\x1a\xddS\xae\xd9\xbf'
p3017
tp3018
Rp3019
ag40
(g44
S'k*D\xde\xda\xd4\xde\xbf'
p3020
tp3021
Rp3022
ag40
(g44
S'?0E3L\xe9\xd9\xbf'
p3023
tp3024
Rp3025
ag40
(g44
S'Y\xf4\x11Y}(\xe2\xbf'
p3026
tp3027
Rp3028
ag40
(g44
S'\x94_qU\x86\xc0\xe0\xbf'
p3029
tp3030
Rp3031
ag40
(g44
S'2\x90\xc0\xff\xfas\xe0\xbf'
p3032
tp3033
Rp3034
ag40
(g44
S'V \xe2\x06\xea\xab\xe2\xbf'
p3035
tp3036
Rp3037
asg243
(lp3038
g40
(g44
S'\xe5\xec\xd5\x86\xb2a\xc1?'
p3039
tp3040
Rp3041
ag40
(g44
S"'\xe4x\x0f\xf2\xeb\xda?"
p3042
tp3043
Rp3044
ag40
(g44
S"N}\xcc'B\x1b\xfd?"
p3045
tp3046
Rp3047
ag40
(g44
S'k\x8c\x0e\xfd\x19\x8d\xd0?'
p3048
tp3049
Rp3050
ag40
(g44
S'\xae\x0c\xa46?\xb5\x99?'
p3051
tp3052
Rp3053
ag40
(g44
S'\xe5\xec\xd5\x86\xb2a\xc1?'
p3054
tp3055
Rp3056
ag40
(g44
S'\r\xe0*\x1b3l\xd5?'
p3057
tp3058
Rp3059
ag40
(g44
S'\xe5\xec\xd5\x86\xb2a\xc1?'
p3060
tp3061
Rp3062
ag40
(g44
S's\xecP\x1f\xb4\x98\xeb?'
p3063
tp3064
Rp3065
ag40
(g44
S'\xcc\xde<\xde^66?'
p3066
tp3067
Rp3068
assS'c880.isc'
p3069
(dp3070
g3
(lp3071
g5
(S'41.58883083359671856503392729'
p3072
tp3073
Rp3074
ag5
(S'41.58883083359671856503392729'
p3075
tp3076
Rp3077
ag5
(S'41.58883083359671856503392729'
p3078
tp3079
Rp3080
ag5
(S'41.58883083359671856503392729'
p3081
tp3082
Rp3083
ag5
(S'41.58883083359671856503392729'
p3084
tp3085
Rp3086
ag5
(S'41.58883083359671856503392729'
p3087
tp3088
Rp3089
ag5
(S'41.58883083359671856503392729'
p3090
tp3091
Rp3092
ag5
(S'41.58883083359671856503392729'
p3093
tp3094
Rp3095
ag5
(S'41.58883083359671856503392729'
p3096
tp3097
Rp3098
ag5
(S'41.58883083359671856503392729'
p3099
tp3100
Rp3101
asg36
(lp3102
F0.8841080665588379
aF1.33760404586792
aF0.7042028903961182
aF0.2887258529663086
aF0.6924169063568115
aF0.6117701530456543
aF0.6661748886108398
aF0.9242000579833984
aF0.6297671794891357
aF0.3926420211791992
asg38
(lp3103
g40
(g44
S'Em\x9cn\x8bl\x1d@'
p3104
tp3105
Rp3106
ag40
(g44
S'\xa0q\xa8\xa8\xb4`\x1b@'
p3107
tp3108
Rp3109
ag40
(g44
S'\xf7$\xf9?\xb6\xc5#@'
p3110
tp3111
Rp3112
ag40
(g44
S'\xf7$\xf9?\xb6\xc5#@'
p3113
tp3114
Rp3115
ag40
(g44
S'Em\x9cn\x8bl\x1d@'
p3116
tp3117
Rp3118
ag40
(g44
S'3\xf7\xc9x\xdda\x1a@'
p3119
tp3120
Rp3121
ag40
(g44
S'\xb4\xaf\xdfX]n!@'
p3122
tp3123
Rp3124
ag40
(g44
S'Em\x9cn\x8bl\x1d@'
p3125
tp3126
Rp3127
ag40
(g44
S'\xe0\xfb\x89K\xd9P @'
p3128
tp3129
Rp3130
ag40
(g44
S'PK\x18y\xa9\x00"@'
p3131
tp3132
Rp3133
asg77
(lp3134
F0.2697101908667362
aF0.25779709934208345
aF0.2524462786052084
aF0.15886789114985286
aF0.22074089160492538
aF0.15972962545278502
aF0.2384549083059765
aF0.23565297017975206
aF0.18771479870366004
aF0.20846807555368235
asg79
(lp3135
g40
(g44
S'\x0f\x1es\xd0\x05tn@'
p3136
tp3137
Rp3138
ag40
(g44
S'\xab\xe3/\xb97\xf2m@'
p3139
tp3140
Rp3141
ag40
(g44
S'\x80\x08j\xe7\x848p@'
p3142
tp3143
Rp3144
ag40
(g44
S'\x80\x08j\xe7\x848p@'
p3145
tp3146
Rp3147
ag40
(g44
S'\x0f\x1es\xd0\x05tn@'
p3148
tp3149
Rp3150
ag40
(g44
S'y\xd7\x0e~\xf0\xaem@'
p3151
tp3152
Rp3153
ag40
(g44
S'\x96gS`\xa0\x9do@'
p3154
tp3155
Rp3156
ag40
(g44
S'\x0f\x1es\xd0\x05tn@'
p3157
tp3158
Rp3159
ag40
(g44
S'\xe96@\xe6\x1d+o@'
p3160
tp3161
Rp3162
ag40
(g44
S'F/\x17\xfa\xa8\xd4o@'
p3163
tp3164
Rp3165
asg111
(lp3166
g40
(g44
S'%\xe7\x18%\xd7\x94S@'
p3167
tp3168
Rp3169
ag40
(g44
S'V\x15!\re\xe3R@'
p3170
tp3171
Rp3172
ag40
(g44
S'K\x17\xf4\x90X\xb3V@'
p3173
tp3174
Rp3175
ag40
(g44
S'K\x17\xf4\x90X\xb3V@'
p3176
tp3177
Rp3178
ag40
(g44
S'%\xe7\x18%\xd7\x94S@'
p3179
tp3180
Rp3181
ag40
(g44
S'n,%\x01\xac\x8aR@'
p3182
tp3183
Rp3184
ag40
(g44
S'\xacs\x04atPU@'
p3185
tp3186
Rp3187
ag40
(g44
S'%\xe7\x18%\xd7\x94S@'
p3188
tp3189
Rp3190
ag40
(g44
S'\xdc\xa1\x0cI\x02\x9fT@'
p3191
tp3192
Rp3193
ag40
(g44
S'\x93\\\x00m-\xa9U@'
p3194
tp3195
Rp3196
asg143
(lp3197
F0.3339731693267822
aF0.6320991516113281
aF0.13168597221374512
aF0.10861492156982422
aF0.8122098445892334
aF0.9672760963439941
aF1.0901670455932617
aF0.7607040405273438
aF2.404514789581299
aF1.7323858737945557
asg145
(lp3198
F112.469149591429
aF107.50139042564881
aF105.27009817837191
aF66.24791060948864
aF92.04895179925389
aF66.60725381381135
aF99.43569676359219
aF98.26728856495662
aF78.27707105942623
aF86.93118750588555
asg147
(lp3199
g40
(g44
S'\xe2\x04U\x8a\xaapq@'
p3200
tp3201
Rp3202
ag40
(g44
S'\xa3\xd6d$\xffRq@'
p3203
tp3204
Rp3205
ag40
(g44
S'n\xde-Q\x8f\xd6q@'
p3206
tp3207
Rp3208
ag40
(g44
S'n\xde-Q\x8f\xd6q@'
p3209
tp3210
Rp3211
ag40
(g44
S'\xe2\x04U\x8a\xaapq@'
p3212
tp3213
Rp3214
ag40
(g44
S'\xd8\xa3!\x050Cq@'
p3215
tp3216
Rp3217
ag40
(g44
S'\xe9\x7f\xc4\xf9\x9a\xafq@'
p3218
tp3219
Rp3220
ag40
(g44
S'\xe2\x04U\x8a\xaapq@'
p3221
tp3222
Rp3223
ag40
(g44
S'l\xd7\xb1\xb1W\x98q@'
p3224
tp3225
Rp3226
ag40
(g44
S'?\x98y\x8fI\xbaq@'
p3227
tp3228
Rp3229
asg179
(lp3230
g40
(g44
S"\xf1\xa0\xd3\xd6'9u@"
p3231
tp3232
Rp3233
ag40
(g44
S'\x0f\xaa\xca\xe5\xab\xe9t@'
p3234
tp3235
Rp3236
ag40
(g44
S'\x18\xccJ\x86\xf8\xc5t@'
p3237
tp3238
Rp3239
ag40
(g44
S'e\xa0\xf0\xa4\x9dUr@'
p3240
tp3241
Rp3242
ag40
(g44
S'\x0b\xad\x81\xb5n\xf2s@'
p3243
tp3244
Rp3245
ag40
(g44
S'\x16\x8a\x99\x83][r@'
p3246
tp3247
Rp3248
ag40
(g44
S'\xa8\x88\xfe\xd0\x9eht@'
p3249
tp3250
Rp3251
ag40
(g44
S'^\xf02\x04\xedUt@'
p3252
tp3253
Rp3254
ag40
(g44
S'~M\xe3\x15\x15\x16s@'
p3255
tp3256
Rp3257
ag40
(g44
S'\x96\xe2\xb1X\x8c\xa0s@'
p3258
tp3259
Rp3260
asg211
(lp3261
g40
(g44
S'\xa6\xaeXz\xfc\x97\xd1\xbf'
p3262
tp3263
Rp3264
ag40
(g44
S'\t6\xf8\x9a+[\xd2\xbf'
p3265
tp3266
Rp3267
ag40
(g44
S'\xbc\xcb\xfc\x92\xd6\xb2\xd2\xbf'
p3268
tp3269
Rp3270
ag40
(g44
S'\xf9\xb7k\xc7\x06\xb0\xd8\xbf'
p3271
tp3272
Rp3273
ag40
(g44
S'}H\x0e\x9bL\xba\xd4\xbf'
p3274
tp3275
Rp3276
ag40
(g44
S'\xd3/Bg\xe8\xa1\xd8\xbf'
p3277
tp3278
Rp3279
ag40
(g44
S'[\xeds\xa2\x12\x98\xd3\xbf'
p3280
tp3281
Rp3282
ag40
(g44
S'Hs\x9b\xd0\xfa\xc5\xd3\xbf'
p3283
tp3284
Rp3285
ag40
(g44
S'd\x85I\x14f\xd7\xd6\xbf'
p3286
tp3287
Rp3288
ag40
(g44
S'\xf0\xc1\xf2\x86`\x83\xd5\xbf'
p3289
tp3290
Rp3291
asg243
(lp3292
g40
(g44
S'\xe9\x19\r\xb3\xe8\xbd\xee?'
p3293
tp3294
Rp3295
ag40
(g44
S'\x9bj\x82a\xac\x03\xe9?'
p3296
tp3297
Rp3298
ag40
(g44
S'PX.kf\xe8\xff?'
p3299
tp3300
Rp3301
ag40
(g44
S'PX.kf\xe8\xff?'
p3302
tp3303
Rp3304
ag40
(g44
S'\xe9\x19\r\xb3\xe8\xbd\xee?'
p3305
tp3306
Rp3307
ag40
(g44
S'%.\x99\xd1/_\xe6?'
p3308
tp3309
Rp3310
ag40
(g44
S'$\xdcw\x10\x19\xd2\xf7?'
p3311
tp3312
Rp3313
ag40
(g44
S'\xe9\x19\r\xb3\xe8\xbd\xee?'
p3314
tp3315
Rp3316
ag40
(g44
S's\xd4\xd4\x9458\xf4?'
p3317
tp3318
Rp3319
ag40
(g44
S'\x90m\xb7\x9a[\xbb\xf9?'
p3320
tp3321
Rp3322
assS'c1908.isc'
p3323
(dp3324
g3
(lp3325
g5
(S'22.87385695847819521076866001'
p3326
tp3327
Rp3328
ag5
(S'22.87385695847819521076866001'
p3329
tp3330
Rp3331
ag5
(S'22.87385695847819521076866001'
p3332
tp3333
Rp3334
ag5
(S'22.87385695847819521076866001'
p3335
tp3336
Rp3337
ag5
(S'22.87385695847819521076866001'
p3338
tp3339
Rp3340
ag5
(S'22.87385695847819521076866001'
p3341
tp3342
Rp3343
ag5
(S'22.87385695847819521076866001'
p3344
tp3345
Rp3346
ag5
(S'22.87385695847819521076866001'
p3347
tp3348
Rp3349
ag5
(S'22.87385695847819521076866001'
p3350
tp3351
Rp3352
ag5
(S'22.87385695847819521076866001'
p3353
tp3354
Rp3355
asg36
(lp3356
F1.6395530700683594
aF2.041128158569336
aF1.2875208854675293
aF0.8546819686889648
aF1.3298530578613281
aF0.9877068996429443
aF1.0719881057739258
aF4.737288951873779
aF2.3626558780670166
aF1.1644039154052734
asg38
(lp3357
g40
(g44
S'\x9dn\x7f\xd0\xe1\xeb\x10@'
p3358
tp3359
Rp3360
ag40
(g44
S'\x97\xae^\x91Mg\x0e@'
p3361
tp3362
Rp3363
ag40
(g44
S'yD\xc4ym, @'
p3364
tp3365
Rp3366
ag40
(g44
S'\xf1\xb6\x9d\x19\x15\xa6\x1b@'
p3367
tp3368
Rp3369
ag40
(g44
S'\x0e\xfc\xa9\xf9 \xf5\x15@'
p3370
tp3371
Rp3372
ag40
(g44
S'\xb5t\x88\x99\x8c\x87\x0f@'
p3373
tp3374
Rp3375
ag40
(g44
S'\xce\xbf%\xd0\xdd\x83\x11@'
p3376
tp3377
Rp3378
ag40
(g44
S'!B\xb4\xa4\x84V\x10@'
p3379
tp3380
Rp3381
ag40
(g44
S'\x98\xfe-x\x886\x0c@'
p3382
tp3383
Rp3384
ag40
(g44
S'Jt\xd6\xfd\xb9\x1a\n@'
p3385
tp3386
Rp3387
asg77
(lp3388
F0.07819809700039622
aF0.1668837860641882
aF0.1653444013960037
aF0.2158515945143923
aF0.13622127069735024
aF0.14797975418219436
aF0.12872753873594014
aF0.11882364276752785
aF0.09396560748538048
aF0.11449952584707351
asg79
(lp3389
g40
(g44
S'J\xfd\x84\xdc\x08\x18t@'
p3390
tp3391
Rp3392
ag40
(g44
S'n\x07\x8a:\xd9ps@'
p3393
tp3394
Rp3395
ag40
(g44
S'Q\x90\xf3s\xf1:x@'
p3396
tp3397
Rp3398
ag40
(g44
S'\x0e\xa4N\xfc+5w@'
p3399
tp3400
Rp3401
ag40
(g44
S'\xe0\x01\x1dZ\x94\xb9u@'
p3402
tp3403
Rp3404
ag40
(g44
S'\xdaZ\xed#@\xa9s@'
p3405
tp3406
Rp3407
ag40
(g44
S'\xa3\xa0\x06\xa5oNt@'
p3408
tp3409
Rp3410
ag40
(g44
S'\xf1\x1b#\xd7\xf9\xe0s@'
p3411
tp3412
Rp3413
ag40
(g44
S"`\xfd\x0e'\xf9\xfdr@"
p3414
tp3415
Rp3416
ag40
(g44
S'YY\xcfRC\x88r@'
p3417
tp3418
Rp3419
asg111
(lp3420
g40
(g44
S'\r\xd0\x141\x90\xedS@'
p3421
tp3422
Rp3423
ag40
(g44
S'V\x15!\re\xe3R@'
p3424
tp3425
Rp3426
ag40
(g44
S'\xf7\xd3\xba8w\x8d[@'
p3427
tp3428
Rp3429
ag40
(g44
S'\x88^\xd3\xf0 yY@'
p3430
tp3431
Rp3432
ag40
(g44
S'K\x17\xf4\x90X\xb3V@'
p3433
tp3434
Rp3435
ag40
(g44
S'=\xfe\x1c\x19\x1e<S@'
p3436
tp3437
Rp3438
ag40
(g44
S'\xf4\xb8\x10=IFT@'
p3439
tp3440
Rp3441
ag40
(g44
S'%\xe7\x18%\xd7\x94S@'
p3442
tp3443
Rp3444
ag40
(g44
S'\x86C)\xf5\xf21R@'
p3445
tp3446
Rp3447
ag40
(g44
S'\xb7q1\xdd\x80\x80Q@'
p3448
tp3449
Rp3450
asg143
(lp3451
F4.842545032501221
aF4.413661003112793
aF1.2386069297790527
aF1.951289176940918
aF0.8586468696594238
aF1.3776569366455078
aF1.4837470054626465
aF1.870954990386963
aF3.5457959175109863
aF1.8334691524505615
asg145
(lp3452
F58.726770847297566
aF125.32972333420533
aF124.17364544839877
aF162.1045474803086
aF102.30217429371004
aF111.13279539082797
aF96.67438159069106
aF89.23655571841341
aF70.56817122152074
aF85.98914391115221
asg147
(lp3453
g40
(g44
S's:\x9b\xb3]\x00z@'
p3454
tp3455
Rp3456
ag40
(g44
S'uj\xc4B\xec\x90y@'
p3457
tp3458
Rp3459
ag40
(g44
S'\xd5\x1d4\x9dQ\xb7|@'
p3460
tp3461
Rp3462
ag40
(g44
S'\xf8\xd9\x13\x18G\x0e|@'
p3463
tp3464
Rp3465
ag40
(g44
S'\xfb!\xab\xef_\x15{@'
p3466
tp3467
Rp3468
ag40
(g44
S'\xe5\x9c6Y\x8a\xb6y@'
p3469
tp3470
Rp3471
ag40
(g44
S'\xb0.A\xc9\x94$z@'
p3472
tp3473
Rp3474
ag40
(g44
S'\xd8\x92\xe3\xda\xaf\xdby@'
p3475
tp3476
Rp3477
ag40
(g44
S'\xec\x07\x87\x89BDy@'
p3478
tp3479
Rp3480
ag40
(g44
S'\xe1\xb5\x9d\xd2\xaa\xf5x@'
p3481
tp3482
Rp3483
asg179
(lp3484
g40
(g44
S'\x11\xde)\xa9\xfa\xb7v@'
p3485
tp3486
Rp3487
ag40
(g44
S'\t\xa3\xabZ\xa0\xe1z@'
p3488
tp3489
Rp3490
ag40
(g44
S'Y0%\x0f!\xcfz@'
p3491
tp3492
Rp3493
ag40
(g44
S'\xac\x9d\xac\x08\x06.}@'
p3494
tp3495
Rp3496
ag40
(g44
S'\x9fch\x83/qy@'
p3497
tp3498
Rp3499
ag40
(g44
S'r[\xc1\xbcy\xfey@'
p3500
tp3501
Rp3502
ag40
(g44
S'z\xe1\x0b\x13$\x17y@'
p3503
tp3504
Rp3505
ag40
(g44
S'\x135X\xbd"\xa0x@'
p3506
tp3507
Rp3508
ag40
(g44
S'(\x00g\tquw@'
p3509
tp3510
Rp3511
ag40
(g44
S'\xc7\xe7BW-lx@'
p3512
tp3513
Rp3514
asg211
(lp3515
g40
(g44
S'\x97\xcd}\x08\xc8\xf7\xd4\xbf'
p3516
tp3517
Rp3518
ag40
(g44
S'\x85\x1f\xe8\x95\x82\x95\xce\xbf'
p3519
tp3520
Rp3521
ag40
(g44
S'\x82DO\xe1\xf3\xc7\xce\xbf'
p3522
tp3523
Rp3524
ag40
(g44
S'\xfcD\xfb\xd5\xeeP\xc8\xbf'
p3525
tp3526
Rp3527
ag40
(g44
S'x\xbc!4!A\xd1\xbf'
p3528
tp3529
Rp3530
ag40
(g44
S'0\x96\xa0\x8cz\x80\xd0\xbf'
p3531
tp3532
Rp3533
ag40
(g44
S'\xec|\x8e1\xe8\xbb\xd1\xbf'
p3534
tp3535
Rp3536
ag40
(g44
S'S\xe0\xe0$,^\xd2\xbf'
p3537
tp3538
Rp3539
ag40
(g44
S'\x19\xf9\x05Mr\xf5\xd3\xbf'
p3540
tp3541
Rp3542
ag40
(g44
S'\x15Z\x11\xce\x04\xa5\xd2\xbf'
p3543
tp3544
Rp3545
asg243
(lp3546
g40
(g44
S'\xc1\xfac\xfa\xce\xfe\xba?'
p3547
tp3548
Rp3549
ag40
(g44
S'\xf3\xc4>\xaa\x074\xa8?'
p3550
tp3551
Rp3552
ag40
(g44
S'\x10\x18\xb2\x07\xeb\xc5\xf3?'
p3553
tp3554
Rp3555
ag40
(g44
S'+\xef\xbd\xf3$\xc0\xe9?'
p3556
tp3557
Rp3558
ag40
(g44
S'\xe4\x02\xc1\x1cW\xe2\xd7?'
p3559
tp3560
Rp3561
ag40
(g44
S'\x14\xbd\x17@=i\xb0?'
p3562
tp3563
Rp3564
ag40
(g44
S'\xdb\xee\xdb\xa4\x93\xa2\xc0?'
p3565
tp3566
Rp3567
ag40
(g44
S'0E\xd9\xa1+`\xb5?'
p3568
tp3569
Rp3570
ag40
(g44
S'(\xd6(\x8e\xbf\xca\x95?'
p3571
tp3572
Rp3573
ag40
(g44
S'I\xe7\x9b\xd1\xfc\xa2v?'
p3574
tp3575
Rp3576
assS'sat-grid-pbl-0020.cnf'
p3577
(dp3578
g3
(lp3579
g5
(S'220.3660190724091582010586847'
p3580
tp3581
Rp3582
ag5
(S'220.3660190724091582010586847'
p3583
tp3584
Rp3585
ag5
(S'220.3660190724091582010586847'
p3586
tp3587
Rp3588
ag5
(S'220.3660190724091582010586847'
p3589
tp3590
Rp3591
ag5
(S'220.3660190724091582010586847'
p3592
tp3593
Rp3594
ag5
(S'220.3660190724091582010586847'
p3595
tp3596
Rp3597
ag5
(S'220.3660190724091582010586847'
p3598
tp3599
Rp3600
ag5
(S'220.3660190724091582010586847'
p3601
tp3602
Rp3603
ag5
(S'220.3660190724091582010586847'
p3604
tp3605
Rp3606
ag5
(S'220.3660190724091582010586847'
p3607
tp3608
Rp3609
asg36
(lp3610
F0.07770609855651855
aF0.0316920280456543
aF0.02962803840637207
aF0.03952789306640625
aF0.06543207168579102
aF0.04551506042480469
aF0.033186912536621094
aF0.04872298240661621
aF0.036427974700927734
aF0.0388491153717041
asg38
(lp3611
g40
(g44
S'b\xc3\x0b\xa9\x1e\rH@'
p3612
tp3613
Rp3614
ag40
(g44
S'\xe6Z\x0fr\xa5\x8eL@'
p3615
tp3616
Rp3617
ag40
(g44
S'\xdd)d\xb6\xe5HM@'
p3618
tp3619
Rp3620
ag40
(g44
S'\xb7\x89/\xee\xbc\xd6K@'
p3621
tp3622
Rp3623
ag40
(g44
S'\xa9"+\x9cz\xebL@'
p3624
tp3625
Rp3626
ag40
(g44
S'bR\xab\xa1VbH@'
p3627
tp3628
Rp3629
ag40
(g44
S'\x1a\xc1l\x80m\xc4N@'
p3630
tp3631
Rp3632
ag40
(g44
S'\xa9"+\x9cz\xebL@'
p3633
tp3634
Rp3635
ag40
(g44
S'\x06|9,\x82eI@'
p3636
tp3637
Rp3638
ag40
(g44
S'\xc3+;\xb1D\xc7J@'
p3639
tp3640
Rp3641
asg77
(lp3642
F0.4844809215151126
aF0.7498302562376423
aF0.6905379735999607
aF0.5445611671663599
aF0.632930847909557
aF0.5107136127543367
aF0.6054882492498701
aF0.5306436728946827
aF0.614342706625576
aF0.587703499138616
asg79
(lp3643
g40
(g44
S'\x86C)\xf5\xf21r@'
p3644
tp3645
Rp3646
ag40
(g44
S'\x86C)\xf5\xf21r@'
p3647
tp3648
Rp3649
ag40
(g44
S'\x86C)\xf5\xf21r@'
p3650
tp3651
Rp3652
ag40
(g44
S'\x86C)\xf5\xf21r@'
p3653
tp3654
Rp3655
ag40
(g44
S'\x86C)\xf5\xf21r@'
p3656
tp3657
Rp3658
ag40
(g44
S'\x86C)\xf5\xf21r@'
p3659
tp3660
Rp3661
ag40
(g44
S'\x86C)\xf5\xf21r@'
p3662
tp3663
Rp3664
ag40
(g44
S'\x86C)\xf5\xf21r@'
p3665
tp3666
Rp3667
ag40
(g44
S'\x86C)\xf5\xf21r@'
p3668
tp3669
Rp3670
ag40
(g44
S'\x86C)\xf5\xf21r@'
p3671
tp3672
Rp3673
asg111
(lp3674
g40
(g44
S'\xa1u\xd7\xe4g i@'
p3675
tp3676
Rp3677
ag40
(g44
S'\x83\xdf\xbc\xb2\x1aak@'
p3678
tp3679
Rp3680
ag40
(g44
S'k\xc8\xb8\xbe\xd3\xb9k@'
p3681
tp3682
Rp3683
ag40
(g44
S'\x9b\xf6\xc0\xa6a\x08k@'
p3684
tp3685
Rp3686
ag40
(g44
S'\xf7\xd3\xba8w\x8dk@'
p3687
tp3688
Rp3689
ag40
(g44
S'\x15j\xd5j\xc4Li@'
p3690
tp3691
Rp3692
ag40
(g44
S':\x9a\xb0\xd6Ekl@'
p3693
tp3694
Rp3695
ag40
(g44
S'\xf7\xd3\xba8w\x8dk@'
p3696
tp3697
Rp3698
ag40
(g44
S'pG\xcf\xfc\xd9\xd1i@'
p3699
tp3700
Rp3701
ag40
(g44
S'@\x19\xc7\x14L\x83j@'
p3702
tp3703
Rp3704
asg143
(lp3705
F0.05428719520568848
aF0.05621910095214844
aF0.09476399421691895
aF0.05545806884765625
aF0.12269282341003418
aF0.31699109077453613
aF0.07723879814147949
aF0.1683361530303955
aF0.3367741107940674
aF0.665565013885498
asg145
(lp3706
F203.48198703634728
aF314.92870761980976
aF290.0259489119835
aF228.71569020987116
aF265.83095612201396
aF214.4997173568214
aF254.30506468494542
aF222.87034261576673
aF258.02393678274194
aF246.8354696382187
asg147
(lp3707
g40
(g44
S'\x86C)\xf5\xf21r@'
p3708
tp3709
Rp3710
ag40
(g44
S'\x86C)\xf5\xf21r@'
p3711
tp3712
Rp3713
ag40
(g44
S'\x86C)\xf5\xf21r@'
p3714
tp3715
Rp3716
ag40
(g44
S'\x86C)\xf5\xf21r@'
p3717
tp3718
Rp3719
ag40
(g44
S'\x86C)\xf5\xf21r@'
p3720
tp3721
Rp3722
ag40
(g44
S'\x86C)\xf5\xf21r@'
p3723
tp3724
Rp3725
ag40
(g44
S'\x86C)\xf5\xf21r@'
p3726
tp3727
Rp3728
ag40
(g44
S'\x86C)\xf5\xf21r@'
p3729
tp3730
Rp3731
ag40
(g44
S'\x86C)\xf5\xf21r@'
p3732
tp3733
Rp3734
ag40
(g44
S'\x86C)\xf5\xf21r@'
p3735
tp3736
Rp3737
asg179
(lp3738
g40
(g44
S'\x16\x90\xdc\x84h\xf6z@'
p3739
tp3740
Rp3741
ag40
(g44
S'j\x0b\xac$\xc7\xf6\x80@'
p3742
tp3743
Rp3744
ag40
(g44
S'\x12Y\x1dK\x8e/\x80@'
p3745
tp3746
Rp3747
ag40
(g44
S'0\x84f\xc4%\x8a|@'
p3748
tp3749
Rp3750
ag40
(g44
S'$4x\xe5\xfd\xdb~@'
p3751
tp3752
Rp3753
ag40
(g44
S'n9s$\xb1\xa6{@'
p3754
tp3755
Rp3756
ag40
(g44
S'\xd9|T\xd8\x93#~@'
p3757
tp3758
Rp3759
ag40
(g44
S'L\x9d39\x9f,|@'
p3760
tp3761
Rp3762
ag40
(g44
S'\x89\xdd[X\x14_~@'
p3763
tp3764
Rp3765
ag40
(g44
S'\xf8\xfb;b\x10\xac}@'
p3766
tp3767
Rp3768
asg211
(lp3769
g40
(g44
S'\x1b\xbdN6\x10\xca\xad\xbf'
p3770
tp3771
Rp3772
ag40
(g44
S'\xc8V\xbf\x7fs\x84\xca?'
p3773
tp3774
Rp3775
ag40
(g44
S'B\x95T\xc8\x8f\xed\xc2?'
p3776
tp3777
Rp3778
ag40
(g44
S'\xfb1t\xc3\xc9\x18_?'
p3779
tp3780
Rp3781
ag40
(g44
S'N\xd0\xcd_\xc8\x1b\xb7?'
p3782
tp3783
Rp3784
ag40
(g44
S';\xf8c(\xb1[\xa0\xbf'
p3785
tp3786
Rp3787
ag40
(g44
S'\x07\x19\x0b\xf8M\x15\xb0?'
p3788
tp3789
Rp3790
ag40
(g44
S'\xfb1{=\xad\x9d\x88\xbf'
p3791
tp3792
Rp3793
ag40
(g44
S'_U\xe5\x1c\x97Y\xb2?'
p3794
tp3795
Rp3796
ag40
(g44
S'\xe8]\xe5\xbf\x86\x0f\xa7?'
p3797
tp3798
Rp3799
asg243
(lp3800
g40
(g44
S'\x94\x1e\xd4\xe2\xae\x13;@'
p3801
tp3802
Rp3803
ag40
(g44
S'iz\xa0J\xa7\xf7@@'
p3804
tp3805
Rp3806
ag40
(g44
S'\x9f}$\xa5|\x87A@'
p3807
tp3808
Rp3809
ag40
(g44
S'\xfat\x91\xb0)j@@'
p3810
tp3811
Rp3812
ag40
(g44
S'L\xdc\xd3\xffF?A@'
p3813
tp3814
Rp3815
ag40
(g44
S'\xd0pB\xea\xb3\x93;@'
p3816
tp3817
Rp3818
ag40
(g44
S'Z}\x8b\x9b.\xaeB@'
p3819
tp3820
Rp3821
ag40
(g44
S'L\xdc\xd3\xffF?A@'
p3822
tp3823
Rp3824
ag40
(g44
S'\xd8`\xecA\xca\x1a=@'
p3825
tp3826
Rp3827
ag40
(g44
S'O\x91\xac\xa4\xa34?@'
p3828
tp3829
Rp3830
assS'rb.cnf'
p3831
(dp3832
g3
(lp3833
g5
(S'855.9432668896412104221506170'
p3834
tp3835
Rp3836
ag5
(S'855.9432668896412104221506170'
p3837
tp3838
Rp3839
ag5
(S'855.9432668896412104221506170'
p3840
tp3841
Rp3842
ag5
(S'855.9432668896412104221506170'
p3843
tp3844
Rp3845
ag5
(S'855.9432668896412104221506170'
p3846
tp3847
Rp3848
ag5
(S'855.9432668896412104221506170'
p3849
tp3850
Rp3851
ag5
(S'855.9432668896412104221506170'
p3852
tp3853
Rp3854
ag5
(S'855.9432668896412104221506170'
p3855
tp3856
Rp3857
ag5
(S'855.9432668896412104221506170'
p3858
tp3859
Rp3860
ag5
(S'855.9432668896412104221506170'
p3861
tp3862
Rp3863
asg36
(lp3864
F0.13738012313842773
aF0.13735508918762207
aF0.1345500946044922
aF0.7001540660858154
aF0.14333319664001465
aF0.14173603057861328
aF0.1391768455505371
aF0.14064693450927734
aF0.137037992477417
aF0.13931012153625488
asg38
(lp3865
g40
(g44
S'\xc0\xabQ\x87[\xe7h@'
p3866
tp3867
Rp3868
ag40
(g44
S'\xf8:\x9b\xe3J\xbeh@'
p3869
tp3870
Rp3871
ag40
(g44
S'\x0cLv"\x8e\x10i@'
p3872
tp3873
Rp3874
ag40
(g44
S'\xb0\x05\r\xc5\xe4Ch@'
p3875
tp3876
Rp3877
ag40
(g44
S'\xb3\xf9R7\\\x95h@'
p3878
tp3879
Rp3880
ag40
(g44
S'\xf6#\x97\xaa\x9a\xb6g@'
p3881
tp3882
Rp3883
ag40
(g44
S'\xe1*\xf8\x9d\xf1\x80h@'
p3884
tp3885
Rp3886
ag40
(g44
S'\xdf0\xd5\xe45Xh@'
p3887
tp3888
Rp3889
ag40
(g44
S'\xf6#\x97\xaa\x9a\xb6g@'
p3890
tp3891
Rp3892
ag40
(g44
S'\xb0\x05\r\xc5\xe4Ch@'
p3893
tp3894
Rp3895
asg77
(lp3896
F0.4466166047084389
aF0.5104740980765406
aF0.4618963662873074
aF0.45201941899598397
aF0.4967569322004519
aF0.49948154513527665
aF0.49868939221256753
aF0.48253347353721904
aF0.4839351496919533
aF0.4707217325849874
asg79
(lp3897
g40
(g44
S'\xf2\x05S&a\x14\x94@'
p3898
tp3899
Rp3900
ag40
(g44
S'\xf2\x05S&a\x14\x94@'
p3901
tp3902
Rp3903
ag40
(g44
S'\xf2\x05S&a\x14\x94@'
p3904
tp3905
Rp3906
ag40
(g44
S'\xf2\x05S&a\x14\x94@'
p3907
tp3908
Rp3909
ag40
(g44
S'\xf2\x05S&a\x14\x94@'
p3910
tp3911
Rp3912
ag40
(g44
S'\xf2\x05S&a\x14\x94@'
p3913
tp3914
Rp3915
ag40
(g44
S'\xf2\x05S&a\x14\x94@'
p3916
tp3917
Rp3918
ag40
(g44
S'\xf2\x05S&a\x14\x94@'
p3919
tp3920
Rp3921
ag40
(g44
S'\xf2\x05S&a\x14\x94@'
p3922
tp3923
Rp3924
ag40
(g44
S'\xf2\x05S&a\x14\x94@'
p3925
tp3926
Rp3927
asg111
(lp3928
g40
(g44
S"'\x02\xc3 \x05\xdc\x8a@"
p3929
tp3930
Rp3931
ag40
(g44
S'\xed\x07\xc4\xdd\xd6\xc5\x8a@'
p3932
tp3933
Rp3934
ag40
(g44
S'a\xfc\xc1c3\xf2\x8a@'
p3935
tp3936
Rp3937
ag40
(g44
S'@\x19\xc7\x14L\x83\x8a@'
p3938
tp3939
Rp3940
ag40
(g44
S'\xb4\r\xc5\x9a\xa8\xaf\x8a@'
p3941
tp3942
Rp3943
ag40
(g44
S'u\xadJ*\xaa5\x8a@'
p3944
tp3945
Rp3946
ag40
(g44
S'\x97\x90Ey\x91\xa4\x8a@'
p3947
tp3948
Rp3949
ag40
(g44
S']\x96F6c\x8e\x8a@'
p3950
tp3951
Rp3952
ag40
(g44
S'u\xadJ*\xaa5\x8a@'
p3953
tp3954
Rp3955
ag40
(g44
S'@\x19\xc7\x14L\x83\x8a@'
p3956
tp3957
Rp3958
asg143
(lp3959
F9.842117071151733
aF13.32480788230896
aF23.94634509086609
aF15.216472864151001
aF23.931472063064575
aF13.60673213005066
aF2.7474350929260254
aF19.893569946289062
aF3.4735138416290283
aF20.059377908706665
asg145
(lp3960
F828.0271851294457
aF946.4189778339064
aF856.3558630966679
aF838.0440028185543
aF920.9873522996379
aF926.0387846808029
aF924.5701331621002
aF894.6170599380041
aF897.2157675288814
aF872.7180922125666
asg147
(lp3961
g40
(g44
S'\xf2\x05S&a\x14\x94@'
p3962
tp3963
Rp3964
ag40
(g44
S'\xf2\x05S&a\x14\x94@'
p3965
tp3966
Rp3967
ag40
(g44
S'\xf2\x05S&a\x14\x94@'
p3968
tp3969
Rp3970
ag40
(g44
S'\xf2\x05S&a\x14\x94@'
p3971
tp3972
Rp3973
ag40
(g44
S'\xf2\x05S&a\x14\x94@'
p3974
tp3975
Rp3976
ag40
(g44
S'\xf2\x05S&a\x14\x94@'
p3977
tp3978
Rp3979
ag40
(g44
S'\xf2\x05S&a\x14\x94@'
p3980
tp3981
Rp3982
ag40
(g44
S'\xf2\x05S&a\x14\x94@'
p3983
tp3984
Rp3985
ag40
(g44
S'\xf2\x05S&a\x14\x94@'
p3986
tp3987
Rp3988
ag40
(g44
S'\xf2\x05S&a\x14\x94@'
p3989
tp3990
Rp3991
asg179
(lp3992
g40
(g44
S'\xcdj[\xf0\x8dk\x94@'
p3993
tp3994
Rp3995
ag40
(g44
S'\xae\xbcv"\x1fE\x96@'
p3996
tp3997
Rp3998
ag40
(g44
S'WkP\x81\xde\xdc\x94@'
p3999
tp4000
Rp4001
ag40
(g44
S'\xaam\x03)\x9f\x93\x94@'
p4002
tp4003
Rp4004
ag40
(g44
S'yuk&e\xdf\x95@'
p4005
tp4006
Rp4007
ag40
(g44
S'\xb6!\x1c\xd1\x99\xf3\x95@'
p4008
tp4009
Rp4010
ag40
(g44
S'\x84\x19\xed\xea\xb9\xed\x95@'
p4011
tp4012
Rp4013
ag40
(g44
S'\xc5\xb8\x7f\xf8\xe9u\x95@'
p4014
tp4015
Rp4016
ag40
(g44
S'\x83\x03\x1a\x0cO\x80\x95@'
p4017
tp4018
Rp4019
ag40
(g44
S'\x1e\xe5\x80mQ\x1e\x95@'
p4020
tp4021
Rp4022
asg211
(lp4023
g40
(g44
S'\xb08FP;\x1b\xc8?'
p4024
tp4025
Rp4026
ag40
(g44
S',\xd3\x8ae\xdb#\xd0?'
p4027
tp4028
Rp4029
ag40
(g44
S'\xe2\x06i>\xeb\x0f\xca?'
p4030
tp4031
Rp4032
ag40
(g44
S'\x11(\x9cgE\xcc\xc8?'
p4033
tp4034
Rp4035
ag40
(g44
S'54\xab\xdd:\x86\xce?'
p4036
tp4037
Rp4038
ag40
(g44
S'\xe0\xb7d\x93\x82\xdf\xce?'
p4039
tp4040
Rp4041
ag40
(g44
S'v\xf8\xf1\x83\x8d\xc5\xce?'
p4042
tp4043
Rp4044
ag40
(g44
S"\xfa~\xc5\xd8'\xb4\xcc?"
p4045
tp4046
Rp4047
ag40
(g44
S'\xd5\xbfd\xf5\x15\xe2\xcc?'
p4048
tp4049
Rp4050
ag40
(g44
S'\x1f\xde8\xc8\x1b1\xcb?'
p4051
tp4052
Rp4053
asg243
(lp4054
g40
(g44
S'\xd2\xd2G\x80\xb4*c@'
p4055
tp4056
Rp4057
ag40
(g44
S'\x9e\xcb0\xf6\xaf\x06c@'
p4058
tp4059
Rp4060
ag40
(g44
S'\x8a\t\xcd\x01\xdbNc@'
p4061
tp4062
Rp4063
ag40
(g44
S'\x10\xd3\x80$n\x9bb@'
p4064
tp4065
Rp4066
ag40
(g44
S'\xec\xf3\x87c\xcd\xe2b@'
p4067
tp4068
Rp4069
ag40
(g44
S'\xdc\xe2\xb8c\xce\x1fb@'
p4070
tp4071
Rp4072
ag40
(g44
S'\xe5\xd9\xfc\xd6\xe8\xd0b@'
p4073
tp4074
Rp4075
ag40
(g44
S'vIy79\xadb@'
p4076
tp4077
Rp4078
ag40
(g44
S'\xdc\xe2\xb8c\xce\x1fb@'
p4079
tp4080
Rp4081
ag40
(g44
S'\x10\xd3\x80$n\x9bb@'
p4082
tp4083
Rp4084
assS'c2670.isc'
p4085
(dp4086
g3
(lp4087
g5
(S'161.5032930704672570942150843'
p4088
tp4089
Rp4090
ag5
(S'161.5032930704672570942150843'
p4091
tp4092
Rp4093
ag5
(S'161.5032930704672570942150843'
p4094
tp4095
Rp4096
ag5
(S'161.5032930704672570942150843'
p4097
tp4098
Rp4099
ag5
(S'161.5032930704672570942150843'
p4100
tp4101
Rp4102
ag5
(S'161.5032930704672570942150843'
p4103
tp4104
Rp4105
ag5
(S'161.5032930704672570942150843'
p4106
tp4107
Rp4108
ag5
(S'161.5032930704672570942150843'
p4109
tp4110
Rp4111
ag5
(S'161.5032930704672570942150843'
p4112
tp4113
Rp4114
ag5
(S'161.5032930704672570942150843'
p4115
tp4116
Rp4117
asg36
(lp4118
F3.021228075027466
aF4.676671028137207
aF1.6822922229766846
aF1.1559131145477295
aF1.3153510093688965
aF6.078183889389038
aF1.2133920192718506
aF1.158289909362793
aF1.1257669925689697
aF1.0818300247192383
asg38
(lp4119
g40
(g44
S'&\xdei\x12\xd5\xff3@'
p4120
tp4121
Rp4122
ag40
(g44
S'\x989\x9a*\x02\xd86@'
p4123
tp4124
Rp4125
ag40
(g44
S'\xf7\xaa\xf3\xc7\xf2\x02>@'
p4126
tp4127
Rp4128
ag40
(g44
S'1q\xca\x16\xf4f=@'
p4129
tp4130
Rp4131
ag40
(g44
S'e\xcfxm\xfar:@'
p4132
tp4133
Rp4134
ag40
(g44
S'\xd8.NA\x95\xe09@'
p4135
tp4136
Rp4137
ag40
(g44
S'\x81\x11A\xcb\xf0\xef>@'
p4138
tp4139
Rp4140
ag40
(g44
S'\xe3\xbd\x85V\x8e\x19=@'
p4141
tp4142
Rp4143
ag40
(g44
S'w%\xbd\xc3\\j@@'
p4144
tp4145
Rp4146
ag40
(g44
S'k*\x9c\x06\xf6\x7f<@'
p4147
tp4148
Rp4149
asg77
(lp4150
F0.3125832134560363
aF0.2993569615624229
aF0.2698739117471722
aF0.2883136594703271
aF0.2899421662031049
aF0.32812797350105555
aF0.3224224283848266
aF0.2148192121909761
aF0.22773120103023156
aF0.25069222325060453
asg79
(lp4151
g40
(g44
S'N\x88\\\x8d\x8d\x08\x86@'
p4152
tp4153
Rp4154
ag40
(g44
S'Zt=\x16o\xb8\x86@'
p4155
tp4156
Rp4157
ag40
(g44
S'\xf1>Az\xb5\x0e\x88@'
p4158
tp4159
Rp4160
ag40
(g44
S'\xbc\xc0]\x18(\xf6\x87@'
p4161
tp4162
Rp4163
ag40
(g44
S'\x97\xfe\x05a\x1ct\x87@'
p4164
tp4165
Rp4166
ag40
(g44
S'\x00\x84\xe7\xe9\x9fX\x87@'
p4167
tp4168
Rp4169
ag40
(g44
S'\xf29\xb7\xb3\xa32\x88@'
p4170
tp4171
Rp4172
ag40
(g44
S'\xb5\x12\xb6.\xb3\xe9\x87@'
p4173
tp4174
Rp4175
ag40
(g44
S'\xeaA\x87\xa6Lw\x88@'
p4176
tp4177
Rp4178
ag40
(g44
S'\x14\x1fu{l\xd0\x87@'
p4179
tp4180
Rp4181
asg111
(lp4182
g40
(g44
S'k\xc8\xb8\xbe\xd3\xb9k@'
p4183
tp4184
Rp4185
ag40
(g44
S'eI\xa2\x80\xcd\xa1m@'
p4186
tp4187
Rp4188
ag40
(g44
S'[\x947Kk\xfbp@'
p4189
tp4190
Rp4191
ag40
(g44
S'\xe7\x9f9\xc5\x0e\xcfp@'
p4192
tp4193
Rp4194
ag40
(g44
S'H\xb3\x87N\x80\xe2o@'
p4195
tp4196
Rp4197
ag40
(g44
S'`\xca\x8bB\xc7\x89o@'
p4198
tp4199
Rp4200
ag40
(g44
S'\t\x834\x14\xf6=q@'
p4201
tp4202
Rp4203
ag40
(g44
S'\xad\xa5:\x82\xe0\xb8p@'
p4204
tp4205
Rp4206
ag40
(g44
S'd`.\xa6\x0b\xc3q@'
p4207
tp4208
Rp4209
ag40
(g44
S'9\xb1<\xfc\x83\x8cp@'
p4210
tp4211
Rp4212
asg143
(lp4213
F0.9049801826477051
aF1.9769318103790283
aF2.4556519985198975
aF1.669569969177246
aF1.7689712047576904
aF1.203847885131836
aF0.7205009460449219
aF2.071376085281372
aF1.2463319301605225
aF3.0974698066711426
asg145
(lp4214
F384.47735255092465
aF368.2090627217802
aF331.9449114490218
aF354.6258011485024
aF356.62886442981903
aF403.5974074062983
aF396.5795869133367
aF264.2276309949006
aF280.1093772671848
aF308.35143459824354
asg147
(lp4215
g40
(g44
S'\x0e\x10fe[`\x88@'
p4216
tp4217
Rp4218
ag40
(g44
S'\x82\xef\xb0\xdf\xef\xd5\x88@'
p4219
tp4220
Rp4221
ag40
(g44
S'\x19UFL\x05\xae\x89@'
p4222
tp4223
Rp4224
ag40
(g44
S'\xcfo!\x8fJ\x9f\x89@'
p4225
tp4226
Rp4227
ag40
(g44
S'\xb3\xa6\xb04\x06O\x89@'
p4228
tp4229
Rp4230
ag40
(g44
S',\x91\xde\xe6\xa2=\x89@'
p4231
tp4232
Rp4233
ag40
(g44
S'\x08&\xdaAK\xc3\x89@'
p4234
tp4235
Rp4236
ag40
(g44
S'\xfaY\xca\x07\xc3\x97\x89@'
p4237
tp4238
Rp4239
ag40
(g44
S'\xf5\x00\x9f\xb0\xe6\xea\x89@'
p4240
tp4241
Rp4242
ag40
(g44
S'\x1f\xa3bn_\x88\x89@'
p4243
tp4244
Rp4245
asg179
(lp4246
g40
(g44
S'\x03\xfa\xa5\x97 4\x88@'
p4247
tp4248
Rp4249
ag40
(g44
S'\xd0\xa9\x82"\xfb\xb1\x87@'
p4250
tp4251
Rp4252
ag40
(g44
S"B\xfc*'\xde\x8f\x86@"
p4253
tp4254
Rp4255
ag40
(g44
S'\xe1ww\x9dPE\x87@'
p4256
tp4257
Rp4258
ag40
(g44
S'x \x82\xe3VU\x87@'
p4259
tp4260
Rp4261
ag40
(g44
S'v\xe6\xf7v\x16\xcd\x88@'
p4262
tp4263
Rp4264
ag40
(g44
S'\xb6\xd2\xe5\xf7\xf1\x94\x88@'
p4265
tp4266
Rp4267
ag40
(g44
S'-\x18\xa2)!r\x84@'
p4268
tp4269
Rp4270
ag40
(g44
S'\xd2n\x9f\xfa.\xf1\x84@'
p4271
tp4272
Rp4273
ag40
(g44
S'\x0et`\xb6\x1e\xd3\x85@'
p4274
tp4275
Rp4276
asg211
(lp4277
g40
(g44
S'}\x0c\xeep\xef\x84r\xbf'
p4278
tp4279
Rp4280
ag40
(g44
S'\x833\x8f\x99j,\x92\xbf'
p4281
tp4282
Rp4283
ag40
(g44
S'`\xefCJ\x9c.\xa8\xbf'
p4284
tp4285
Rp4286
ag40
(g44
S'\x1bi\xdc\x0eZ{\x9d\xbf'
p4287
tp4288
Rp4289
ag40
(g44
S'\x07\x02:\xd2r\xd0\x9b\xbf'
p4290
tp4291
Rp4292
ag40
(g44
S'\xf9\xdd\xac\xa7v\x93\x86?'
p4293
tp4294
Rp4295
ag40
(g44
S'\xa79x\xb4:\xc8u?'
p4296
tp4297
Rp4298
ag40
(g44
S'%\xb87\xbb^/\xba\xbf'
p4299
tp4300
Rp4301
ag40
(g44
S'w>m\x81+\xe1\xb6\xbf'
p4302
tp4303
Rp4304
ag40
(g44
S'"R\xe8ye\x00\xb1\xbf'
p4305
tp4306
Rp4307
asg243
(lp4308
g40
(g44
S'\xcc\t+h\xd9\x07\x1e@'
p4309
tp4310
Rp4311
ag40
(g44
S'\xc7\xf4\xb5D\xf8\x92"@'
p4312
tp4313
Rp4314
ag40
(g44
S'\xde\x1e\xcb\xe5\x83\x11,@'
p4315
tp4316
Rp4317
ag40
(g44
S'kr\xe1\x14\xac<+@'
p4318
tp4319
Rp4320
ag40
(g44
S"H\x12J\x99tD'@"
p4321
tp4322
Rp4323
ag40
(g44
S'E\x98]\xd2\xcf\x82&@'
p4324
tp4325
Rp4326
ag40
(g44
S'M\xc1H\x92\xc7V-@'
p4327
tp4328
Rp4329
ag40
(g44
S'Yo\x0c]s\xd3*@'
p4330
tp4331
Rp4332
ag40
(g44
S'\xe2\xde\x80V\xe8\xf6/@'
p4333
tp4334
Rp4335
ag40
(g44
S'\x82\x0f\xa2Nh\x03*@'
p4336
tp4337
Rp4338
assS'ra.cnf'
p4339
(dp4340
g3
(lp4341
g5
(S'659.1673732008658148371471422'
p4342
tp4343
Rp4344
ag5
(S'659.1673732008658148371471422'
p4345
tp4346
Rp4347
ag5
(S'659.1673732008658148371471422'
p4348
tp4349
Rp4350
ag5
(S'659.1673732008658148371471422'
p4351
tp4352
Rp4353
ag5
(S'659.1673732008658148371471422'
p4354
tp4355
Rp4356
ag5
(S'659.1673732008658148371471422'
p4357
tp4358
Rp4359
ag5
(S'659.1673732008658148371471422'
p4360
tp4361
Rp4362
ag5
(S'659.1673732008658148371471422'
p4363
tp4364
Rp4365
ag5
(S'659.1673732008658148371471422'
p4366
tp4367
Rp4368
ag5
(S'659.1673732008658148371471422'
p4369
tp4370
Rp4371
asg36
(lp4372
F0.30772900581359863
aF0.21151304244995117
aF0.12990593910217285
aF0.12171006202697754
aF0.13796496391296387
aF0.19146299362182617
aF0.18056917190551758
aF0.21507906913757324
aF0.1820368766784668
aF0.1391160488128662
asg38
(lp4373
g40
(g44
S'\xc6-HE\x14\x81c@'
p4374
tp4375
Rp4376
ag40
(g44
S'C\xd7\xeb\xe0\xfe4d@'
p4377
tp4378
Rp4379
ag40
(g44
S'\xb5\xa7\xbf\xb7,\xc4c@'
p4380
tp4381
Rp4382
ag40
(g44
S'\xc4\xa8]C\xd0jc@'
p4383
tp4384
Rp4385
ag40
(g44
S'\x8f\xf8\xf8\xdbX\xd0b@'
p4386
tp4387
Rp4388
ag40
(g44
S'\xdb@b\xb4C\xe6b@'
p4389
tp4390
Rp4391
ag40
(g44
S'\x8f\xf8\xf8\xdbX\xd0b@'
p4392
tp4393
Rp4394
ag40
(g44
S'\xc6-HE\x14\x81c@'
p4395
tp4396
Rp4397
ag40
(g44
S'\xa2\x04V\xaaP(c@'
p4398
tp4399
Rp4400
ag40
(g44
S'(\xc6\x1a\x87\x941e@'
p4401
tp4402
Rp4403
asg77
(lp4404
F0.6711118588985853
aF0.5429183745053214
aF0.6169637377232186
aF0.582786890648915
aF0.6659154589320962
aF0.5679148301334311
aF0.48698406138703404
aF0.5928794683298221
aF0.6120601749307095
aF0.5351711725827786
asg79
(lp4405
g40
(g44
S'\xed\x07\xc4\xdd\xd6\xc5\x8a@'
p4406
tp4407
Rp4408
ag40
(g44
S'\xed\x07\xc4\xdd\xd6\xc5\x8a@'
p4409
tp4410
Rp4411
ag40
(g44
S'\xed\x07\xc4\xdd\xd6\xc5\x8a@'
p4412
tp4413
Rp4414
ag40
(g44
S'\xed\x07\xc4\xdd\xd6\xc5\x8a@'
p4415
tp4416
Rp4417
ag40
(g44
S'\xed\x07\xc4\xdd\xd6\xc5\x8a@'
p4418
tp4419
Rp4420
ag40
(g44
S'\xed\x07\xc4\xdd\xd6\xc5\x8a@'
p4421
tp4422
Rp4423
ag40
(g44
S'\xed\x07\xc4\xdd\xd6\xc5\x8a@'
p4424
tp4425
Rp4426
ag40
(g44
S'\xed\x07\xc4\xdd\xd6\xc5\x8a@'
p4427
tp4428
Rp4429
ag40
(g44
S'\xed\x07\xc4\xdd\xd6\xc5\x8a@'
p4430
tp4431
Rp4432
ag40
(g44
S'\xed\x07\xc4\xdd\xd6\xc5\x8a@'
p4433
tp4434
Rp4435
asg111
(lp4436
g40
(g44
S'\xb1\xf2\x1a\x9fzh\x83@'
p4437
tp4438
Rp4439
ag40
(g44
S'\x99\xdb\x16\xab3\xc1\x83@'
p4440
tp4441
Rp4442
ag40
(g44
S'\x08j\x99\x03\xc0\x89\x83@'
p4443
tp4444
Rp4445
ag40
(g44
S'\x94u\x9b}c]\x83@'
p4446
tp4447
Rp4448
ag40
(g44
S'\xc9\t\x1f\x93\xc1\x0f\x83@'
p4449
tp4450
Rp4451
ag40
(g44
S'\xe6\x86\x9e\xb4\xd8\x1a\x83@'
p4452
tp4453
Rp4454
ag40
(g44
S'\xc9\t\x1f\x93\xc1\x0f\x83@'
p4455
tp4456
Rp4457
ag40
(g44
S'\xb1\xf2\x1a\x9fzh\x83@'
p4458
tp4459
Rp4460
ag40
(g44
S'=\xfe\x1c\x19\x1e<\x83@'
p4461
tp4462
Rp4463
ag40
(g44
S'\xd7;\x91\x1b2;\x84@'
p4464
tp4465
Rp4466
asg143
(lp4467
F0.07580018043518066
aF0.08196187019348145
aF0.12621307373046875
aF0.08585000038146973
aF0.11613607406616211
aF0.13724517822265625
aF0.08687901496887207
aF0.11967992782592773
aF0.12280797958374023
aF0.08683490753173828
asg145
(lp4468
F829.4942575986514
aF671.0471108885773
aF762.5671798258982
aF720.3245968420589
aF823.071507240071
aF701.9427300449208
aF601.9122998743741
aF732.7990228556602
aF756.506376214357
aF661.4715693123144
asg147
(lp4469
g40
(g44
S'\xed\x07\xc4\xdd\xd6\xc5\x8a@'
p4470
tp4471
Rp4472
ag40
(g44
S'\xed\x07\xc4\xdd\xd6\xc5\x8a@'
p4473
tp4474
Rp4475
ag40
(g44
S'\xed\x07\xc4\xdd\xd6\xc5\x8a@'
p4476
tp4477
Rp4478
ag40
(g44
S'\xed\x07\xc4\xdd\xd6\xc5\x8a@'
p4479
tp4480
Rp4481
ag40
(g44
S'\xed\x07\xc4\xdd\xd6\xc5\x8a@'
p4482
tp4483
Rp4484
ag40
(g44
S'\xed\x07\xc4\xdd\xd6\xc5\x8a@'
p4485
tp4486
Rp4487
ag40
(g44
S'\xed\x07\xc4\xdd\xd6\xc5\x8a@'
p4488
tp4489
Rp4490
ag40
(g44
S'\xed\x07\xc4\xdd\xd6\xc5\x8a@'
p4491
tp4492
Rp4493
ag40
(g44
S'\xed\x07\xc4\xdd\xd6\xc5\x8a@'
p4494
tp4495
Rp4496
ag40
(g44
S'\xed\x07\xc4\xdd\xd6\xc5\x8a@'
p4497
tp4498
Rp4499
asg179
(lp4500
g40
(g44
S'\x10\xf0#\x91\xee\x11\x93@'
p4501
tp4502
Rp4503
ag40
(g44
S'\xef.P\xb0$\x98\x90@'
p4504
tp4505
Rp4506
ag40
(g44
S'\xc4\xc4C=9\x06\x92@'
p4507
tp4508
Rp4509
ag40
(g44
S'%L\x97\xd5@]\x91@'
p4510
tp4511
Rp4512
ag40
(g44
S')\x9e\xab\xab=\xf8\x92@'
p4513
tp4514
Rp4515
ag40
(g44
S'\x99W\x80\xcd\xb9\x13\x91@'
p4516
tp4517
Rp4518
ag40
(g44
S'\xb8T\xd4H5\x07\x8f@'
p4519
tp4520
Rp4521
ag40
(g44
S'M\x1f\x86\xa5&\x8f\x91@'
p4522
tp4523
Rp4524
ag40
(g44
S'\x93x\xf6\xf9\xfa\xed\x91@'
p4525
tp4526
Rp4527
ag40
(g44
S'\xc8\xd0\x8aU\xd7q\x90@'
p4528
tp4529
Rp4530
asg211
(lp4531
g40
(g44
S'\xf3xv\x8d\xae\xb4\xd6?'
p4532
tp4533
Rp4534
ag40
(g44
S'\x020i7\xb8\x00\xcd?'
p4535
tp4536
Rp4537
ag40
(g44
S'k\xd6\x10\xdf\x84=\xd3?'
p4538
tp4539
Rp4540
ag40
(g44
S'\x9a\x1b\xf3\xc8\x90\r\xd1?'
p4541
tp4542
Rp4543
ag40
(g44
S'C\n|E\x8b_\xd6?'
p4544
tp4545
Rp4546
ag40
(g44
S'\xc8\xaa\x90\xd7\xe6\x19\xd0?'
p4547
tp4548
Rp4549
ag40
(g44
S'\xc3\x93\xa00\xdd\xd7\xc5?'
p4550
tp4551
Rp4552
ag40
(g44
S'\x8f\xb4\xb7\x1f\xec\xb2\xd1?'
p4553
tp4554
Rp4555
ag40
(g44
S'=\xdd\x9b\xd6-\xed\xd2?'
p4556
tp4557
Rp4558
ag40
(g44
S'\xc3\xe7\xf6\xf9\xdb\x02\xcc?'
p4559
tp4560
Rp4561
asg243
(lp4562
g40
(g44
S'\x1dCQ\xb2\xcb\xf0\\@'
p4563
tp4564
Rp4565
ag40
(g44
S"\x83,\x05\xf8,'^@"
p4566
tp4567
Rp4568
ag40
(g44
S'c\xef\xa8\x1cqd]@'
p4569
tp4570
Rp4571
ag40
(g44
S'K\xa6\xae,r\xca\\@'
p4572
tp4573
Rp4574
ag40
(g44
S'DBF\xd1\xc8\xc0[@'
p4575
tp4576
Rp4577
ag40
(g44
S'\xa8e\xe6\x03p\xe6[@'
p4578
tp4579
Rp4580
ag40
(g44
S'DBF\xd1\xc8\xc0[@'
p4581
tp4582
Rp4583
ag40
(g44
S'\x1dCQ\xb2\xcb\xf0\\@'
p4584
tp4585
Rp4586
ag40
(g44
S'\xa0\xa56u\xfeW\\@'
p4587
tp4588
Rp4589
ag40
(g44
S' Y8\xd8X\xdc_@'
p4590
tp4591
Rp4592
assS'log-2.cnf'
p4593
(dp4594
g3
(lp4595
g5
(S'24.19940808387429746877865551'
p4596
tp4597
Rp4598
ag5
(S'24.19940808387429746877865551'
p4599
tp4600
Rp4601
ag5
(S'24.19940808387429746877865551'
p4602
tp4603
Rp4604
ag5
(S'24.19940808387429746877865551'
p4605
tp4606
Rp4607
ag5
(S'24.19940808387429746877865551'
p4608
tp4609
Rp4610
ag5
(S'24.19940808387429746877865551'
p4611
tp4612
Rp4613
ag5
(S'24.19940808387429746877865551'
p4614
tp4615
Rp4616
ag5
(S'24.19940808387429746877865551'
p4617
tp4618
Rp4619
ag5
(S'24.19940808387429746877865551'
p4620
tp4621
Rp4622
ag5
(S'24.19940808387429746877865551'
p4623
tp4624
Rp4625
asg36
(lp4626
F2.9418540000915527
aF4.236236810684204
aF3.4493470191955566
aF7.113178014755249
aF4.029650926589966
aF3.331151008605957
aF4.5914528369903564
aF2.0701191425323486
aF7.569561004638672
aF5.203496932983398
asg38
(lp4627
g40
(g44
S'Au\x1a\x9fk\xc2\xf5?'
p4628
tp4629
Rp4630
ag40
(g44
S'\x8edz\xbf@\xc5\xf4?'
p4631
tp4632
Rp4633
ag40
(g44
S'\x90*`*rS\xfd?'
p4634
tp4635
Rp4636
ag40
(g44
S"[+\xc5'\x15\x9c\xdb?"
p4637
tp4638
Rp4639
ag40
(g44
S'`\xbbA\xe0\xb6\x7f\xfe?'
p4640
tp4641
Rp4642
ag40
(g44
S'`\xbbA\xe0\xb6\x7f\xfe?'
p4643
tp4644
Rp4645
ag40
(g44
S'V\xe1\x14\xd3\xba+\xf0?'
p4646
tp4647
Rp4648
ag40
(g44
S'8\xd3\x92\xb0\x94\xdc\xf2?'
p4649
tp4650
Rp4651
ag40
(g44
S'\xa4\xd2\xf8o\x15\x96\xaa?'
p4652
tp4653
Rp4654
ag40
(g44
S'\xe5\x14s\x95Y\xce\x8d?'
p4655
tp4656
Rp4657
asg77
(lp4658
F0.05270432993416913
aF0.05120438036075624
aF0.01753725882156583
aF-0.034022105919650936
aF0.09190981338704439
aF0.05800581190814287
aF0.07509969177080214
aF0.05637373601571584
aF0.018616211195367913
aF0.05430392615599518
asg79
(lp4659
g40
(g44
S'\xba\xf8Q\xba\x05\x1dt@'
p4660
tp4661
Rp4662
ag40
(g44
S'HO\xd4\xaeX\xc7s@'
p4663
tp4664
Rp4665
ag40
(g44
S'\xc8\xd7\x05\r\x98_v@'
p4666
tp4667
Rp4668
ag40
(g44
S'\x93_\xdc{ICj@'
p4669
tp4670
Rp4671
ag40
(g44
S'5G\x1c\xd4e\xafv@'
p4672
tp4673
Rp4674
ag40
(g44
S'5G\x1c\xd4e\xafv@'
p4675
tp4676
Rp4677
ag40
(g44
S'\\\x1e<\x8d\x87\x0er@'
p4678
tp4679
Rp4680
ag40
(g44
S't\xfe\xa5e\x90\x19s@'
p4681
tp4682
Rp4683
ag40
(g44
S"\xffv'!$\xc6V@"
p4684
tp4685
Rp4686
ag40
(g44
S'\xae\x9f\xc8\xfc7\xfdJ@'
p4687
tp4688
Rp4689
asg111
(lp4690
g40
(g44
S'\xc1&\x9c\x12\xe3&N@'
p4691
tp4692
Rp4693
ag40
(g44
S'\xf1T\xa4\xfapuM@'
p4694
tp4695
Rp4696
ag40
(g44
S'\xb7q1\xdd\x80\x80Q@'
p4697
tp4698
Rp4699
ag40
(g44
S'[\x947Kk\xfb@@'
p4700
tp4701
Rp4702
ag40
(g44
S'\x9eZ-\xe99\xd9Q@'
p4703
tp4704
Rp4705
ag40
(g44
S'\x9eZ-\xe99\xd9Q@'
p4706
tp4707
Rp4708
ag40
(g44
S'\xe4;\xcd\x826\xfeI@'
p4709
tp4710
Rp4711
ag40
(g44
S'R\xb1\xb4\xca\x8c\x12L@'
p4712
tp4713
Rp4714
ag40
(g44
S"\x8e\xdd\xe9.'\x91'@"
p4715
tp4716
Rp4717
ag40
(g44
S'-\x81\xd9^\x0b\xf4\x18@'
p4718
tp4719
Rp4720
asg143
(lp4721
F4.17118501663208
aF3.1551120281219482
aF4.1671648025512695
aF5.852988958358765
aF5.955441951751709
aF4.468703985214233
aF2.701629877090454
aF4.852675914764404
aF3.4497060775756836
aF5.945836067199707
asg145
(lp4722
F70.46568912198413
aF68.4602565423311
aF23.447315044433513
aF-45.4875556145733
aF122.88342049847834
aF77.55377052118702
aF100.40828789756246
aF75.37168505301207
aF24.8898743682069
aF72.60434927056555
asg147
(lp4723
g40
(g44
S'\x92\xd0\xd4\xaf\x7fN\x80@'
p4724
tp4725
Rp4726
ag40
(g44
S'\xb1\x0e\xb2\xb0D0\x80@'
p4727
tp4728
Rp4729
ag40
(g44
S'\xf3\xe2l\x81_\x1c\x81@'
p4730
tp4731
Rp4732
ag40
(g44
S'\x94\xde~\xdf\xab\xd3{@'
p4733
tp4734
Rp4735
ag40
(g44
S'\xf0O\xc1o\xfc8\x81@'
p4736
tp4737
Rp4738
ag40
(g44
S'\xf0O\xc1o\xfc8\x81@'
p4739
tp4740
Rp4741
ag40
(g44
S'\x82\xdb&w\xd2+\x7f@'
p4742
tp4743
Rp4744
ag40
(g44
S'+\xc4\x14yX\xe6\x7f@'
p4745
tp4746
Rp4747
ag40
(g44
S'\xac\xf1T\xa1\x02<w@'
p4748
tp4749
Rp4750
ag40
(g44
S'\xf8\xeb(\x01\x88\xfdu@'
p4751
tp4752
Rp4753
asg179
(lp4754
g40
(g44
S',n\xe0\x8b\xd9\xd1}@'
p4755
tp4756
Rp4757
ag40
(g44
S'\x16ogK\xc3\xb1}@'
p4758
tp4759
Rp4760
ag40
(g44
S'c\x8bBI\x8e\xe1z@'
p4761
tp4762
Rp4763
ag40
(g44
S'\x99\xe4R\x0e\x99\x92v@'
p4764
tp4765
Rp4766
ag40
(g44
S'\x88{|ID\x8c\x80@'
p4767
tp4768
Rp4769
ag40
(g44
S'\x91\xfd\xeaSBC~@'
p4770
tp4771
Rp4772
ag40
(g44
S'\xe8\x93Tn\xee\xb0\x7f@'
p4773
tp4774
Rp4775
ag40
(g44
S'[Ow\x81X ~@'
p4776
tp4777
Rp4778
ag40
(g44
S'\xbbmX\x02\xa3\xf8z@'
p4779
tp4780
Rp4781
ag40
(g44
S'\xd2\xa4\x94\x7f\x11\xf4}@'
p4782
tp4783
Rp4784
asg211
(lp4785
g40
(g44
S'\xe7\xff\xe5\xe2\xb3\x17\xd0\xbf'
p4786
tp4787
Rp4788
ag40
(g44
S'\xcbB}!G0\xd0\xbf'
p4789
tp4790
Rp4791
ag40
(g44
S'g\xc8\xfaE\xe1W\xd2\xbf'
p4792
tp4793
Rp4794
ag40
(g44
S'\xf55R\xec\xa0\xa4\xd5\xbf'
p4795
tp4796
Rp4797
ag40
(g44
S'\xc6}+W\xb8*\xcb\xbf'
p4798
tp4799
Rp4800
ag40
(g44
S'\xb4\x95\xf2\xb7\xaf\x81\xcf\xbf'
p4801
tp4802
Rp4803
ag40
(g44
S'Q/v\xdc\x8dQ\xcd\xbf'
p4804
tp4805
Rp4806
ag40
(g44
S"*'=\x90*\xb7\xcf\xbf"
p4807
tp4808
Rp4809
ag40
(g44
S'q\x94\xb0\xd13F\xd2\xbf'
p4810
tp4811
Rp4812
ag40
(g44
S'X-\x11c\xfd\xfa\xcf\xbf'
p4813
tp4814
Rp4815
asg243
(lp4816
g40
(g44
S'#\xe7\xa48e~\xd4?'
p4817
tp4818
Rp4819
ag40
(g44
S'\xb1\xe4\xd0\xb5E{\xd6?'
p4820
tp4821
Rp4822
ag40
(g44
S'<\xf4\x0b\x08WO\xc2?'
p4823
tp4824
Rp4825
ag40
(g44
S'\xe3@r\xe4\x8b\x7f\xf2?'
p4826
tp4827
Rp4828
ag40
(g44
S'c\xf4\x7f\x7f\xc9\x9c\xbf?'
p4829
tp4830
Rp4831
ag40
(g44
S'c\xf4\x7f\x7f\xc9\x9c\xbf?'
p4832
tp4833
Rp4834
ag40
(g44
S'\xb1\x0cL\xf7t\xe6\xe0?'
p4835
tp4836
Rp4837
ag40
(g44
S'\xfa\x1f\x8bq\xad\xbb\xda?'
p4838
tp4839
Rp4840
ag40
(g44
S'\xf3\xdeX\x9a\xb3\x19\x02@'
p4841
tp4842
Rp4843
ag40
(g44
S'\xe7\x8e\x04\x9c\xef\xc5\x04@'
p4844
tp4845
Rp4846
assS'sat-grid-pbl-0030.cnf'
p4847
(dp4848
g3
(lp4849
g5
(S'502.3959132375194767325914187'
p4850
tp4851
Rp4852
ag5
(S'502.3959132375194767325914187'
p4853
tp4854
Rp4855
ag5
(S'502.3959132375194767325914187'
p4856
tp4857
Rp4858
ag5
(S'502.3959132375194767325914187'
p4859
tp4860
Rp4861
ag5
(S'502.3959132375194767325914187'
p4862
tp4863
Rp4864
ag5
(S'502.3959132375194767325914187'
p4865
tp4866
Rp4867
ag5
(S'502.3959132375194767325914187'
p4868
tp4869
Rp4870
ag5
(S'502.3959132375194767325914187'
p4871
tp4872
Rp4873
ag5
(S'502.3959132375194767325914187'
p4874
tp4875
Rp4876
ag5
(S'502.3959132375194767325914187'
p4877
tp4878
Rp4879
asg36
(lp4880
F0.07935500144958496
aF0.10038900375366211
aF0.16182208061218262
aF0.13115501403808594
aF0.09551715850830078
aF0.16118597984313965
aF0.10479593276977539
aF0.08579421043395996
aF0.1000208854675293
aF0.14124083518981934
asg38
(lp4881
g40
(g44
S'\xd5\x02\x84<s\xdfa@'
p4882
tp4883
Rp4884
ag40
(g44
S'\xe9\xaa\xf7\x92?\xa5`@'
p4885
tp4886
Rp4887
ag40
(g44
S'\xf9\x12\xecSL\t^@'
p4888
tp4889
Rp4890
ag40
(g44
S'\xc1\x01T`:H_@'
p4891
tp4892
Rp4893
ag40
(g44
S'\xe6\xff\xfc\xb6\x8a\x8d`@'
p4894
tp4895
Rp4896
ag40
(g44
S'\xc0$\x9c\x0e\xb1\x00`@'
p4897
tp4898
Rp4899
ag40
(g44
S'\x15\x8e\xc9K\xbc\x04a@'
p4900
tp4901
Rp4902
ag40
(g44
S'\x8d\xcb\x16\x99]\xaf]@'
p4903
tp4904
Rp4905
ag40
(g44
S'\xe9\xaa\xf7\x92?\xa5`@'
p4906
tp4907
Rp4908
ag40
(g44
S'\xc8B\x03\x88\x8a\xa4_@'
p4909
tp4910
Rp4911
asg77
(lp4912
F0.6461560054904781
aF0.624341533865355
aF0.5879901872539217
aF0.5553170680388568
aF0.5721776660772385
aF0.5641107581136922
aF0.5633389585451153
aF0.6308643725765655
aF0.5556562492168338
aF0.490834999038464
asg79
(lp4913
g40
(g44
S'\x9eA\x92\xd8\x03%\x84@'
p4914
tp4915
Rp4916
ag40
(g44
S'\x9eA\x92\xd8\x03%\x84@'
p4917
tp4918
Rp4919
ag40
(g44
S'\x9eA\x92\xd8\x03%\x84@'
p4920
tp4921
Rp4922
ag40
(g44
S'\x9eA\x92\xd8\x03%\x84@'
p4923
tp4924
Rp4925
ag40
(g44
S'\x9eA\x92\xd8\x03%\x84@'
p4926
tp4927
Rp4928
ag40
(g44
S'\x9eA\x92\xd8\x03%\x84@'
p4929
tp4930
Rp4931
ag40
(g44
S'\x9eA\x92\xd8\x03%\x84@'
p4932
tp4933
Rp4934
ag40
(g44
S'\x9eA\x92\xd8\x03%\x84@'
p4935
tp4936
Rp4937
ag40
(g44
S'\x9eA\x92\xd8\x03%\x84@'
p4938
tp4939
Rp4940
ag40
(g44
S'\x9eA\x92\xd8\x03%\x84@'
p4941
tp4942
Rp4943
asg111
(lp4944
g40
(g44
S'\x18\xceA\xad\x9c\x1d\x80@'
p4945
tp4946
Rp4947
ag40
(g44
S'>\xe7\x90\xf3\xdf\x1a\x7f@'
p4948
tp4949
Rp4950
ag40
(g44
S'+O\xa3=\x9f\x8b}@'
p4951
tp4952
Rp4953
ag40
(g44
S'\xc1&\x9c\x12\xe3&~@'
p4954
tp4955
Rp4956
ag40
(g44
S'\x04\xed\x91\xb0\xb1\x04\x7f@'
p4957
tp4958
Rp4959
ag40
(g44
S'\xa9\x0f\x98\x1e\x9c\x7f~@'
p4960
tp4961
Rp4962
ag40
(g44
S'&\xd0\x8c\xff\x98s\x7f@'
p4963
tp4964
Rp4965
ag40
(g44
S'\xb7Z\xa5\xb7B_}@'
p4966
tp4967
Rp4968
ag40
(g44
S'>\xe7\x90\xf3\xdf\x1a\x7f@'
p4969
tp4970
Rp4971
ag40
(g44
S'5\x1b\x9a\x98?S~@'
p4972
tp4973
Rp4974
asg143
(lp4975
F0.14927196502685547
aF0.27103281021118164
aF0.20648598670959473
aF0.5396890640258789
aF0.6971700191497803
aF0.22414803504943848
aF0.2691159248352051
aF0.2576110363006592
aF0.24939298629760742
aF0.710421085357666
asg145
(lp4976
F600.9250851061447
aF580.6376264947801
aF546.8308741461472
aF516.4448732761368
aF532.1252294518318
aF524.6230050457337
aF523.9052314469573
aF586.7038664962059
aF516.7603117716554
aF456.47654910577154
asg147
(lp4977
g40
(g44
S'\x9eA\x92\xd8\x03%\x84@'
p4978
tp4979
Rp4980
ag40
(g44
S'\x9eA\x92\xd8\x03%\x84@'
p4981
tp4982
Rp4983
ag40
(g44
S'\x9eA\x92\xd8\x03%\x84@'
p4984
tp4985
Rp4986
ag40
(g44
S'\x9eA\x92\xd8\x03%\x84@'
p4987
tp4988
Rp4989
ag40
(g44
S'\x9eA\x92\xd8\x03%\x84@'
p4990
tp4991
Rp4992
ag40
(g44
S'\x9eA\x92\xd8\x03%\x84@'
p4993
tp4994
Rp4995
ag40
(g44
S'\x9eA\x92\xd8\x03%\x84@'
p4996
tp4997
Rp4998
ag40
(g44
S'\x9eA\x92\xd8\x03%\x84@'
p4999
tp5000
Rp5001
ag40
(g44
S'\x9eA\x92\xd8\x03%\x84@'
p5002
tp5003
Rp5004
ag40
(g44
S'\x9eA\x92\xd8\x03%\x84@'
p5005
tp5006
Rp5007
asg179
(lp5008
g40
(g44
S'\x10\x89`3\xa1`\x8d@'
p5009
tp5010
Rp5011
ag40
(g44
S'\xf2\xd2F|T\xbe\x8c@'
p5012
tp5013
Rp5014
ag40
(g44
S'&\x88\xb3A\xe0\xaf\x8b@'
p5015
tp5016
Rp5017
ag40
(g44
S'\xc6\xc0\x13\xba\xc9\xbc\x8a@'
p5018
tp5019
Rp5020
ag40
(g44
S'\xb6\xe2\xa7\x18;:\x8b@'
p5021
tp5022
Rp5023
ag40
(g44
S"('m\x8a6\xfe\x8a@"
p5024
tp5025
Rp5026
ag40
(g44
S'\xbc\x81W\x8ax\xf8\x8a@'
p5027
tp5028
Rp5029
ag40
(g44
S'pQ\x1d%\xdc\xee\x8c@'
p5030
tp5031
Rp5032
ag40
(g44
S'\xfe\xf1\xb1\xbeO\xbf\x8a@'
p5033
tp5034
Rp5035
ag40
(g44
S'\x9d\xa3U\x99\n\xdd\x88@'
p5036
tp5037
Rp5038
asg211
(lp5039
g40
(g44
S'\x18C\xdcg\xae\x03\xd2?'
p5040
tp5041
Rp5042
ag40
(g44
S'\xe2\xdbN\xe1E\x9e\xd0?'
p5043
tp5044
Rp5045
ag40
(g44
S'\xb0l/\x90b\x95\xcc?'
p5046
tp5047
Rp5048
ag40
(g44
S'A\x16\xf1\x92\xc0f\xc8?'
p5049
tp5050
Rp5051
ag40
(g44
S'\xdeP\x86\x85=\x8f\xca?'
p5052
tp5053
Rp5054
ag40
(g44
S'\xc3A\x95d\xe7\x86\xc9?'
p5055
tp5056
Rp5057
ag40
(g44
S'\x87F\xa1\x11\x9dm\xc9?'
p5058
tp5059
Rp5060
ag40
(g44
S':!\x0b\xa6$\t\xd1?'
p5061
tp5062
Rp5063
ag40
(g44
S'#\xa4\xf9\xd4\xddq\xc8?'
p5064
tp5065
Rp5066
ag40
(g44
S'\x04\x98,\xc6\xcd%\xc0?'
p5067
tp5068
Rp5069
asg243
(lp5070
g40
(g44
S'v\x8ah\x1b\xe2#Z@'
p5071
tp5072
Rp5073
ag40
(g44
S'.\xa7|h\x1f\x0cX@'
p5074
tp5075
Rp5076
ag40
(g44
S'\x08\xe2\x19\xfe2KU@'
p5077
tp5078
Rp5079
ag40
(g44
S'\xd1\xd8\xdf\x8c>XV@'
p5080
tp5081
Rp5082
ag40
(g44
S'\x95t\x9e\x0b\xd6\xe3W@'
p5083
tp5084
Rp5085
ag40
(g44
S'\xd9\x92g\xdd\xe4\xf4V@'
p5086
tp5087
Rp5088
ag40
(g44
S'\xd0\xdf\xc3m\x97\xaeX@'
p5089
tp5090
Rp5091
ag40
(g44
S'w\xe1r\xf9\x84\xffT@'
p5092
tp5093
Rp5094
ag40
(g44
S'.\xa7|h\x1f\x0cX@'
p5095
tp5096
Rp5097
ag40
(g44
S'\xfc\xd2`\xfeM\xa6V@'
p5098
tp5099
Rp5100
assS'tire-2.cnf'
p5101
(dp5102
g3
(lp5103
g5
(S'27.32852267575170047911478367'
p5104
tp5105
Rp5106
ag5
(S'27.32852267575170047911478367'
p5107
tp5108
Rp5109
ag5
(S'27.32852267575170047911478367'
p5110
tp5111
Rp5112
ag5
(S'27.32852267575170047911478367'
p5113
tp5114
Rp5115
ag5
(S'27.32852267575170047911478367'
p5116
tp5117
Rp5118
ag5
(S'27.32852267575170047911478367'
p5119
tp5120
Rp5121
ag5
(S'27.32852267575170047911478367'
p5122
tp5123
Rp5124
ag5
(S'27.32852267575170047911478367'
p5125
tp5126
Rp5127
ag5
(S'27.32852267575170047911478367'
p5128
tp5129
Rp5130
ag5
(S'27.32852267575170047911478367'
p5131
tp5132
Rp5133
asg36
(lp5134
F0.0328679084777832
aF0.033998966217041016
aF0.031948089599609375
aF0.02986288070678711
aF0.03487801551818848
aF0.032994985580444336
aF0.033499956130981445
aF0.02935504913330078
aF0.034478187561035156
aF0.029088973999023438
asg38
(lp5135
g40
(g44
S'P\x1c\xb2\x1a\x8b\xe5\xd2?'
p5136
tp5137
Rp5138
ag40
(g44
S'\xdb_\x08~<B\x05@'
p5139
tp5140
Rp5141
ag40
(g44
S']\xa2.\x11!\x1f\x01@'
p5142
tp5143
Rp5144
ag40
(g44
S'y1Lw\xd1`\xf4?'
p5145
tp5146
Rp5147
ag40
(g44
S'\x16r\xe9X\xe0\x9f\x9c?'
p5148
tp5149
Rp5150
ag40
(g44
S'\xdb_\x08~<B\x05@'
p5151
tp5152
Rp5153
ag40
(g44
S'2\xbaC\xf8+\x1d\x02@'
p5154
tp5155
Rp5156
ag40
(g44
S']\xa2.\x11!\x1f\x01@'
p5157
tp5158
Rp5159
ag40
(g44
S',P\x032\xee\x19\xf0?'
p5160
tp5161
Rp5162
ag40
(g44
S'\xf4\xb9\x05\x01N\x82\xf7?'
p5163
tp5164
Rp5165
asg77
(lp5166
F0.15577992256795664
aF-0.004589244990100808
aF0.028446894280444043
aF0.23083075969345268
aF0.1360678347247727
aF0.07195159569006337
aF0.09779916515482585
aF0.058910752256409946
aF0.18877738674469452
aF0.027158170058013107
asg79
(lp5167
g40
(g44
S'\x84\xafA\x00D.Z@'
p5168
tp5169
Rp5170
ag40
(g44
S'q\x8e\xb4\xb34\x11l@'
p5171
tp5172
Rp5173
ag40
(g44
S'\x9a\xf6\x9c\xea\x934j@'
p5174
tp5175
Rp5176
ag40
(g44
S'\x13@\xd8\xfb\xd2\x12f@'
p5177
tp5178
Rp5179
ag40
(g44
S'\x88\x8e\xc4G\x86\xe4D@'
p5180
tp5181
Rp5182
ag40
(g44
S'q\x8e\xb4\xb34\x11l@'
p5183
tp5184
Rp5185
ag40
(g44
S'\xaa\xbd}\xd7\xc1\xaej@'
p5186
tp5187
Rp5188
ag40
(g44
S'\x9a\xf6\x9c\xea\x934j@'
p5189
tp5190
Rp5191
ag40
(g44
S'Zk\xa9\xfb\xcd\\d@'
p5192
tp5193
Rp5194
ag40
(g44
S'\xbcR\x91\xd2\x87)g@'
p5195
tp5196
Rp5197
asg111
(lp5198
g40
(g44
S'\x12O+o\x96\x052@'
p5199
tp5200
Rp5201
ag40
(g44
S'\x9b\xf6\xc0\xa6a\x08K@'
p5202
tp5203
Rp5204
ag40
(g44
S']\xaf\xe1F\x99BH@'
p5205
tp5206
Rp5207
ag40
(g44
S'\xe2 #\x87\x08\xb7B@'
p5208
tp5209
Rp5210
ag40
(g44
S'\xef9\xfa\xfeB.\x16@'
p5211
tp5212
Rp5213
ag40
(g44
S'\x9b\xf6\xc0\xa6a\x08K@'
p5214
tp5215
Rp5216
ag40
(g44
S'-\x81\xd9^\x0b\xf4H@'
p5217
tp5218
Rp5219
ag40
(g44
S']\xaf\xe1F\x99BH@'
p5220
tp5221
Rp5222
ag40
(g44
S's\xab;?\xb2\xa2@@'
p5223
tp5224
Rp5225
ag40
(g44
S'\x81\xc4\x12\xb7\xec\x19D@'
p5226
tp5227
Rp5228
asg143
(lp5229
F0.03291606903076172
aF0.03189992904663086
aF0.034757137298583984
aF0.03548693656921387
aF0.031252145767211914
aF0.029304981231689453
aF0.02912306785583496
aF0.037921905517578125
aF0.027477025985717773
aF0.037081003189086914
asg145
(lp5230
F85.67895741237615
aF-2.524084744555444
aF15.645791854244223
aF126.95691783139897
aF74.83730909862498
aF39.57337762953485
aF53.78954083515422
aF32.40091374102547
aF103.82756270958198
aF14.93699353190721
asg147
(lp5231
g40
(g44
S'\xefw\xea5\xf7Cm@'
p5232
tp5233
Rp5234
ag40
(g44
S'\xbb\x9b_\x02\x1c0s@'
p5235
tp5236
Rp5237
ag40
(g44
S'\xe7[\xc1\x1b\xd7\x9br@'
p5238
tp5239
Rp5240
ag40
(g44
S'#\x8bd\xbfjSq@'
p5241
tp5242
Rp5243
ag40
(g44
S'\xf6\x1d4\ts\x16i@'
p5244
tp5245
Rp5246
ag40
(g44
S'\xbb\x9b_\x02\x1c0s@'
p5247
tp5248
Rp5249
ag40
(g44
S'\n\x98\xc9\xe8\xde\xc1r@'
p5250
tp5251
Rp5252
ag40
(g44
S'\xe7[\xc1\x1b\xd7\x9br@'
p5253
tp5254
Rp5255
ag40
(g44
S'Ua%\xd0\x9d\xccp@'
p5256
tp5257
Rp5258
ag40
(g44
S'\xb3z\x17q\xaa\xa9q@'
p5259
tp5260
Rp5261
asg179
(lp5262
g40
(g44
S'8\x04,\x86\xf0\xa7u@'
p5263
tp5264
Rp5265
ag40
(g44
S'\x87\x08\n\xdd\xb0$p@'
p5266
tp5267
Rp5268
ag40
(g44
S'\xbcK\x90\xadhGq@'
p5269
tp5270
Rp5271
ag40
(g44
S'\xc9\xd8\xcb\x0cc<x@'
p5272
tp5273
Rp5274
ag40
(g44
S'\x80\x1f\xf3!y\xfat@'
p5275
tp5276
Rp5277
ag40
(g44
S'v\xdd\xbe\x11@\xc6r@'
p5278
tp5279
Rp5280
ag40
(g44
S'4\x89Ky\xb5\xa9s@'
p5281
tp5282
Rp5283
ag40
(g44
S'>O@\xa8}Sr@'
p5284
tp5285
Rp5286
ag40
(g44
S'f\xbc\x1e6Q\xcav@'
p5287
tp5288
Rp5289
ag40
(g44
S'am\xa7p\x11<q@'
p5290
tp5291
Rp5292
asg211
(lp5293
g40
(g44
S'\xf7\xdc\x83\x006a\xd4\xbf'
p5294
tp5295
Rp5296
ag40
(g44
S'\xd8\x92\x00\x0b\xb3\xa4\xde\xbf'
p5297
tp5298
Rp5299
ag40
(g44
S'0`\x90no\x87\xdc\xbf'
p5300
tp5301
Rp5302
ag40
(g44
S"\xcf\xd2\x88\xf3''\xcf\xbf"
p5303
tp5304
Rp5305
ag40
(g44
S'\x9d\xb1\xab},\xa4\xd5\xbf'
p5306
tp5307
Rp5308
ag40
(g44
S'\x07\xad\x1e}\xa7\xbe\xd9\xbf'
p5309
tp5310
Rp5311
ag40
(g44
S'\xc3\x9c\xbc\xec*\x17\xd8\xbf'
p5312
tp5313
Rp5314
ag40
(g44
S'\xc2\x80"\xc0P\x94\xda\xbf'
p5315
tp5316
Rp5317
ag40
(g44
S'w\x80$\x9b\x94D\xd2\xbf'
p5318
tp5319
Rp5320
ag40
(g44
S'\xfeC\xa9\xbb\x8c\x9c\xdc\xbf'
p5321
tp5322
Rp5323
asg243
(lp5324
g40
(g44
S'\tNm\xdeh\x9b\xf6?'
p5325
tp5326
Rp5327
ag40
(g44
S'\xa9J\x8a\xa9\xa1E\x85?'
p5328
tp5329
Rp5330
ag40
(g44
S'4\xc6\xf5\xe9\x14\x8a\xb2?'
p5331
tp5332
Rp5333
ag40
(g44
S'\xc1:7\xb6)O\xd7?'
p5334
tp5335
Rp5336
ag40
(g44
S'\x80\xf11N\x19\x97\x03@'
p5337
tp5338
Rp5339
ag40
(g44
S'\xa9J\x8a\xa9\xa1E\x85?'
p5340
tp5341
Rp5342
ag40
(g44
S'?k3q|t\xaa?'
p5343
tp5344
Rp5345
ag40
(g44
S'4\xc6\xf5\xe9\x14\x8a\xb2?'
p5346
tp5347
Rp5348
ag40
(g44
S'\xf7~\t\xa8A\x00\xe1?'
p5349
tp5350
Rp5351
ag40
(g44
S'\x1a\xd7\x1d\x13\x82L\xd1?'
p5352
tp5353
Rp5354
assI1
I1
tp5355
.