((dp0
S'log-4.cnf'
p1
(dp2
S'barv_lower_bound'
p3
cnumpy.core.multiarray
scalar
p4
(cnumpy
dtype
p5
(S'f8'
p6
I0
I1
tp7
Rp8
(I3
S'<'
p9
NNNI-1
I-1
I0
tp10
bS'a\xd7\xd2\x11p\xb8\x89?'
p11
tp12
Rp13
sS'exact_log_Z'
p14
cdecimal
Decimal
p15
(S'65.32345235557495907353541722'
p16
tp17
Rp18
sS'barv_upper_bound'
p19
g4
(g8
S'\xa05\xd4\xe3\x9b\x1dv@'
p20
tp21
Rp22
sS'gumbel_upper'
p23
F96.63667415044472
sS'barv_estimator'
p24
g4
(g8
S'beA\xfb{&P@'
p25
tp26
Rp27
ssS'sat-grid-pbl-0010.cnf'
p28
(dp29
g3
g4
(g8
S'\xbf\x1e6*E5\xe7?'
p30
tp31
Rp32
sg14
g15
(S'54.74110355310283121263143109'
p33
tp34
Rp35
sg19
g4
(g8
S'\xd2\re0\xd7\xa9O@'
p36
tp37
Rp38
sg23
F59.092699876543975
sg24
g4
(g8
S'\x03\x9b\x9e>\xa7\xf1=@'
p39
tp40
Rp41
ssS'tire-1.cnf'
p42
(dp43
g3
g4
(g8
S'\xa3\xb5~\xf4\x90\x1c\x81?'
p44
tp45
Rp46
sg14
g15
(S'20.40366757860640219747606596'
p47
tp48
Rp49
sg19
g4
(g8
S'F\xa6[\x1d\xa5\x97W@'
p50
tp51
Rp52
sg23
F49.729253766993175
sg24
g4
(g8
S'l\xda1\x8f\xa1w1@'
p53
tp54
Rp55
ssS'log-1.cnf'
p56
(dp57
g3
g4
(g8
S'7\x1e\xa4\x0c\xc6.\x87?'
p58
tp59
Rp60
sg14
g15
(S'47.78185814456179880189729527'
p61
tp62
Rp63
sg19
g4
(g8
S"8\xcfc)w'i@"
p64
tp65
Rp66
sg23
F53.03783900169245
sg24
g4
(g8
S'h\xad\x0e\xc3\xa5rD@'
p67
tp68
Rp69
ssS'tire-4.cnf'
p70
(dp71
g3
g4
(g8
S'\xbe\x9e\xe39\xa9\xffY?'
p72
tp73
Rp74
sg14
g15
(S'32.26760906093560147581645240'
p75
tp76
Rp77
sg19
g4
(g8
S'\xc6\xd3L\xc1v\xdbd@'
p78
tp79
Rp80
sg23
F64.04688561980447
sg24
g4
(g8
S'\x86\x83\xa3\x96/\x87=@'
p81
tp82
Rp83
ssS'log-3.cnf'
p84
(dp85
g3
g4
(g8
S'\xb6/\x1b\x15\xe0\xd2\xb2?'
p86
tp87
Rp88
sg14
g15
(S'26.35754624642712697549596379'
p89
tp90
Rp91
sg19
g4
(g8
S'\x82\x9bK\xff\xa7jh@'
p92
tp93
Rp94
sg23
F28.151805960993794
sg24
g4
(g8
S'\xcd\xad\x05w\xd655@'
p95
tp96
Rp97
ssS'tire-3.cnf'
p98
(dp99
g3
g4
(g8
S'\xf3\xec\xc4m\xa4s\x81?'
p100
tp101
Rp102
sg14
g15
(S'26.12846440361733772531178430'
p103
tp104
Rp105
sg19
g4
(g8
S'\x04\xe3@z\xc6.`@'
p106
tp107
Rp108
sg23
F68.26994838673961
sg24
g4
(g8
S'\x19\x97\xf86\xc0Q6@'
p109
tp110
Rp111
ssS'c1355.isc'
p112
(dp113
g3
g4
(g8
S'\xbe:,\x98\xd2<\xd3?'
p114
tp115
Rp116
sg14
g15
(S'28.41903440295775768610651698'
p117
tp118
Rp119
sg19
g4
(g8
S'\xf9-\xa6\xa3uYf@'
p120
tp121
Rp122
sg23
F57.61591804225737
sg24
g4
(g8
S'\xcc$\xc9\x8e\xefVJ@'
p123
tp124
Rp125
ssS'sat-grid-pbl-0015.cnf'
p126
(dp127
g3
g4
(g8
S'\xab\x97\x08\x06\xc8\xa1\t@'
p128
tp129
Rp130
sg14
g15
(S'125.4425195006362289639072410'
p131
tp132
Rp133
sg19
g4
(g8
S'V\xd5{A+La@'
p134
tp135
Rp136
sg23
F145.85227796098292
sg24
g4
(g8
S'\xd9\xfd%e\xedxR@'
p137
tp138
Rp139
ssS'sat-grid-pbl-0025.cnf'
p140
(dp141
g3
g4
(g8
S'\xc0\xd3\xab\x05\xf4U$@'
p142
tp143
Rp144
sg14
g15
(S'348.2810069124694245655975633'
p145
tp146
Rp147
sg19
g4
(g8
S'\x81\xecf\xc2\xceFv@'
p148
tp149
Rp150
sg23
F378.1577420161705
sg24
g4
(g8
S'\xa7F\xe1\x94xKh@'
p151
tp152
Rp153
ssS'c499.isc'
p154
(dp155
g3
g4
(g8
S'\xb3\xffI\x9f\xe2\x19\xde?'
p156
tp157
Rp158
sg14
g15
(S'28.41903440295775768610651698'
p159
tp160
Rp161
sg19
g4
(g8
S'\xa3wW\xa5\xd1\xdeZ@'
p162
tp163
Rp164
sg23
F86.59834318493773
sg24
g4
(g8
S'p~\x18s\xb6\x9dC@'
p165
tp166
Rp167
ssS'c432.isc'
p168
(dp169
g3
g4
(g8
S';}g\xfc\xdf\xa2\xcd?'
p170
tp171
Rp172
sg14
g15
(S'24.95329850015803113902035637'
p173
tp174
Rp175
sg19
g4
(g8
S'\x04\xb6\xdcb\xdd{U@'
p176
tp177
Rp178
sg23
F46.07813814945826
sg24
g4
(g8
S'\\&\xa5^\xb2c=@'
p179
tp180
Rp181
ssS'c880.isc'
p182
(dp183
g3
g4
(g8
S'q+\xf1;A\r\xe1?'
p184
tp185
Rp186
sg14
g15
(S'41.58883083359671856503392729'
p187
tp188
Rp189
sg19
g4
(g8
S'\x9er\xd0\xc0T\xc8c@'
p190
tp191
Rp192
sg23
F103.95239851884567
sg24
g4
(g8
S'\x1f\xdf\xc5\xfe\xe9\x9dJ@'
p193
tp194
Rp195
ssS'c1908.isc'
p196
(dp197
g3
g4
(g8
S'\xd33I#\x14\xd9\xc7?'
p198
tp199
Rp200
sg14
g15
(S'22.87385695847819521076866001'
p201
tp202
Rp203
sg19
g4
(g8
S'\x0c\xe5A|\x0e\xe5i@'
p204
tp205
Rp206
sg23
F185.56997066063502
sg24
g4
(g8
S'\x83\xdf\xbc\xb2\x1aaK@'
p207
tp208
Rp209
ssS'sat-grid-pbl-0020.cnf'
p210
(dp211
g3
g4
(g8
S'\xb9\xef\r|\x01\xd8\x16@'
p212
tp213
Rp214
sg14
g15
(S'220.3660190724091582010586847'
p215
tp216
Rp217
sg19
g4
(g8
S'\x11\xd6p\xa1G\xf6l@'
p218
tp219
Rp220
sg23
F284.9607476782287
sg24
g4
(g8
S'f\x9b\x95\xf2\xd7\xb4^@'
p221
tp222
Rp223
ssS'rb.cnf'
p224
(dp225
g3
g4
(g8
S'\x85P\xd9\xd2\r\xb52@'
p226
tp227
Rp228
sg14
g15
(S'855.9432668896412104221506170'
p229
tp230
Rp231
sg19
g4
(g8
S'F<V\x04]#\x8b@'
p232
tp233
Rp234
sg23
F946.2890590840543
sg24
g4
(g8
S'I<\xc46g\xc1z@'
p235
tp236
Rp237
ssS'c2670.isc'
p238
(dp239
g3
g4
(g8
S'\xb7\xe9^\xcd\xc4\xcf\x05@'
p240
tp241
Rp242
sg14
g15
(S'161.5032930704672570942150843'
p243
tp244
Rp245
sg19
g4
(g8
S'D\xfc\xc4\xe7p\xc2z@'
p246
tp247
Rp248
sg23
F353.5352393140585
sg24
g4
(g8
S'_\xe1\x17h\x05\xabc@'
p249
tp250
Rp251
ssS'ra.cnf'
p252
(dp253
g3
g4
(g8
S'\x80\x02\xdcP\xc8\xcd3@'
p254
tp255
Rp256
sg14
g15
(S'659.1673732008658148371471422'
p257
tp258
Rp259
sg19
g4
(g8
S'\x12d\x91\nL\x80\x84@'
p260
tp261
Rp262
sg23
F705.0855985700664
sg24
g4
(g8
S'S\x91\xf7y\xeegv@'
p263
tp264
Rp265
ssS'log-2.cnf'
p266
(dp267
g3
g4
(g8
S'\xcf\xec\xa6y\xa8J\x94?'
p268
tp269
Rp270
sg14
g15
(S'24.19940808387429746877865551'
p271
tp272
Rp273
sg19
g4
(g8
S'4\xda\xeam\xa1ij@'
p274
tp275
Rp276
sg23
F138.8934974212726
sg24
g4
(g8
S'\x7f\xb2\x99\xe6\x1e\\>@'
p277
tp278
Rp279
ssS'sat-grid-pbl-0030.cnf'
p280
(dp281
g3
g4
(g8
S'\xfb\\\xa2K\xc0`-@'
p282
tp283
Rp284
sg14
g15
(S'502.3959132375194767325914187'
p285
tp286
Rp287
sg19
g4
(g8
S'\xd8y\x1ac\xf9=\x7f@'
p288
tp289
Rp290
sg23
F571.9356974552999
sg24
g4
(g8
S'J\xf76@\xba\x08q@'
p291
tp292
Rp293
ssS'tire-2.cnf'
p294
(dp295
g3
g4
(g8
S"'\xed\t\xc0u~\xa0?"
p296
tp297
Rp298
sg14
g15
(S'27.32852267575170047911478367'
p299
tp300
Rp301
sg19
g4
(g8
S'\xdfh\x98\x97\x19\xa3b@'
p302
tp303
Rp304
sg23
F44.0341237292468
sg24
g4
(g8
S'\xd8\xab2\xf3\xe2eA@'
p305
tp306
Rp307
ssI1
I10
tp308
.