((dp0
S'log-4.cnf'
p1
(dp2
S'exact_log_Z'
p3
(lp4
cdecimal
Decimal
p5
(S'65.32345235557495907353541722'
p6
tp7
Rp8
asS'barv_compute_time'
p9
(lp10
F382.37074184417725
asS'barv_expectation_LB'
p11
(lp12
cnumpy.core.multiarray
scalar
p13
(cnumpy
dtype
p14
(S'f8'
p15
I0
I1
tp16
Rp17
(I3
S'<'
p18
NNNI-1
I-1
I0
tp19
bS'LZ\xee:\xa9\x93\r@'
p20
tp21
Rp22
asS'gumbel_expectation_LB'
p23
(lp24
F0.05812466764485152
asS'barv_expectation_UB'
p25
(lp26
g13
(g17
S'\xb5d\xbb\x98\x01\xe4\x81@'
p27
tp28
Rp29
asS'barv_estimator'
p30
(lp31
g13
(g17
S'\xfc?\x8cz5)[@'
p32
tp33
Rp34
asS'gumb_compute_time'
p35
(lp36
F298.2581379413605
asS'gumbel_expectation_UB'
p37
(lp38
F133.86110958609305
asS'barv_high_prob_UB'
p39
(lp40
g13
(g17
S'\x16\x93DHf\xd6\x82@'
p41
tp42
Rp43
asS'delta_k_gumbel_perturb'
p44
(lp45
F-23.78
asS'epsilon_g'
p46
(lp47
g13
(g17
S'\x998 K\xe4\x11J@'
p48
tp49
Rp50
asS'gumbel_high_prob_UB'
p51
(lp52
g13
(g17
S'|\xdfxH\x07@g@'
p53
tp54
Rp55
asS'massart_gumbelPerturb_LB_lambda'
p56
(lp57
F0.001
asS'gumbel_high_prob_LB'
p58
(lp59
g13
(g17
S's\rF\xea\r+\xa2?'
p60
tp61
Rp62
asS'barv_high_prob_LB'
p63
(lp64
g13
(g17
S'y\x99\xdf\x19\x8cN\t@'
p65
tp66
Rp67
asS'massart_gumbelPerturb_LB'
p68
(lp69
g13
(g17
S'\xce$\xe8\xd2J\x83\xf6\xbf'
p70
tp71
Rp72
assS'sat-grid-pbl-0010.cnf'
p73
(dp74
g3
(lp75
g5
(S'54.74110355310283121263143109'
p76
tp77
Rp78
asg9
(lp79
F0.9438951015472412
asg11
(lp80
g13
(g17
S'yRj\x96\xc9\xf01@'
p81
tp82
Rp83
asg23
(lp84
F0.5427396518866618
asg25
(lp85
g13
(g17
S'\xc9\t\x1f\x93\xc1\x0fS@'
p86
tp87
Rp88
asg30
(lp89
g13
(g17
S"\xa0\xc01\x83\x06'J@"
p90
tp91
Rp92
asg35
(lp93
F1.3541650772094727
asg37
(lp94
F59.7013617075328
asg39
(lp95
g13
(g17
S'\xc9\t\x1f\x93\xc1\x0fS@'
p96
tp97
Rp98
asg44
(lp99
F80.9
asg46
(lp100
g13
(g17
S'X\x7f?\x00L\xca&@'
p101
tp102
Rp103
asg51
(lp104
g13
(g17
S'4\x11?\x9c,\xc6Q@'
p105
tp106
Rp107
asg56
(lp108
F0.01
asg58
(lp109
g13
(g17
S'\x17\xa6\xb3\x17\xff\x1a\xdc?'
p110
tp111
Rp112
asg63
(lp113
g13
(g17
S'\x99g\xb7\xf8b\xbd0@'
p114
tp115
Rp116
asg68
(lp117
g13
(g17
S'\xd0~\x08x#h\xab?'
p118
tp119
Rp120
assS'tire-1.cnf'
p121
(dp122
g3
(lp123
g5
(S'20.40366757860640219747606596'
p124
tp125
Rp126
asg9
(lp127
F3.184854030609131
asg11
(lp128
g13
(g17
S'\x12;\xf2\xf6\x85\xc9\xff?'
p129
tp130
Rp131
asg23
(lp132
F0.10893032998702613
asg25
(lp133
g13
(g17
S'\x17\xae\\\x84\xe0\xcc`@'
p134
tp135
Rp136
asg30
(lp137
g13
(g17
S'\x9b"* \xdc"?@'
p138
tp139
Rp140
asg35
(lp141
F3.085645914077759
asg37
(lp142
F38.3434761554332
asg39
(lp143
g13
(g17
S'\xca\xc4e/-\xdfa@'
p144
tp145
Rp146
asg44
(lp147
F37.8
asg46
(lp148
g13
(g17
S'\xf3\xbf\x96\x90Zb4@'
p149
tp150
Rp151
asg51
(lp152
g13
(g17
S'F\xa5\x1eO$]M@'
p153
tp154
Rp155
asg56
(lp156
F0.001
asg58
(lp157
g13
(g17
S'\xdc\x83E*b\x1f\xaa?'
p158
tp159
Rp160
asg63
(lp161
g13
(g17
S'\x11\x83)\x8f\xa3\x9d\xf9?'
p162
tp163
Rp164
asg68
(lp165
g13
(g17
S'pM]C*\xd0\xc7\xbf'
p166
tp167
Rp168
assS'log-1.cnf'
p169
(dp170
g3
(lp171
g5
(S'47.78185814456179880189729527'
p172
tp173
Rp174
asg9
(lp175
F5.722400903701782
asg11
(lp176
g13
(g17
S'8OH<\xb2*\x0b@'
p177
tp178
Rp179
asg23
(lp180
F0.08157187312762713
asg25
(lp181
g13
(g17
S'Rz\xebS\xadZs@'
p182
tp183
Rp184
asg30
(lp185
g13
(g17
S'\xbc;\xa2\xb9%\x9fP@'
p186
tp187
Rp188
asg35
(lp189
F329.5606698989868
asg37
(lp190
F76.59598886684188
asg39
(lp191
g13
(g17
S',\xd5\x87\x1c\x98Zt@'
p192
tp193
Rp194
asg44
(lp195
F98.42
asg46
(lp196
g13
(g17
S'\xbe\xe8\xc3C\x86\xa5@@'
p197
tp198
Rp199
asg51
(lp200
g13
(g17
S'\xcb\xeb^\xd0\xe7x[@'
p201
tp202
Rp203
asg56
(lp204
F0.001
asg58
(lp205
g13
(g17
S'3\x07\xfa\xc9\x80\x9c\xa7?'
p206
tp207
Rp208
asg63
(lp209
g13
(g17
S'\xfd\x108\xfc\xd5\x14\x07@'
p210
tp211
Rp212
asg68
(lp213
g13
(g17
S'\xe8M\xff,?\x91\xde\xbf'
p214
tp215
Rp216
assS'c2670.isc'
p217
(dp218
g3
(lp219
g5
(S'161.5032930704672570942150843'
p220
tp221
Rp222
asg9
(lp223
F207.045156955719
asg11
(lp224
g13
(g17
S"\x0b'\xf6m\xb2\xc7C@"
p225
tp226
Rp227
asg23
(lp228
F0.2481900023654125
asg25
(lp229
g13
(g17
S'](:3\n\xa1\x87@'
p230
tp231
Rp232
asg30
(lp233
g13
(g17
S'\xb3l\x80T\x8e;p@'
p234
tp235
Rp236
asg35
(lp237
F219.69085693359375
asg37
(lp238
F305.27370290945737
asg39
(lp239
g13
(g17
S'\xd2\xd8>\xf7\xa1\xd8\x87@'
p240
tp241
Rp242
asg44
(lp243
F297.0
asg46
(lp244
g13
(g17
S'\x02\xccj\xf8[\rC@'
p245
tp246
Rp247
asg51
(lp248
g13
(g17
S'\x88\xa8Z\x95\x0cvu@'
p249
tp250
Rp251
asg56
(lp252
F0.001
asg58
(lp253
g13
(g17
S'\x11H\xef\x97\x90\xcd\xcb?'
p254
tp255
Rp256
asg63
(lp257
g13
(g17
S'\xc8\xbb\x82\\+\xe2B@'
p258
tp259
Rp260
asg68
(lp261
g13
(g17
S'H(\x87\x81K\xee\xdc\xbf'
p262
tp263
Rp264
assS'log-3.cnf'
p265
(dp266
g3
(lp267
g5
(S'26.35754624642712697549596379'
p268
tp269
Rp270
asg9
(lp271
F352.55340695381165
asg11
(lp272
g13
(g17
S'\x8c\x15\x7f\xfe;%\xf6?'
p273
tp274
Rp275
asg23
(lp276
F0.0478678469188665
asg25
(lp277
g13
(g17
S'F\xa9\x7f\x8eHXr@'
p278
tp279
Rp280
asg30
(lp281
g13
(g17
S'\x0b\x8b\x99\x13\xdc\x08J@'
p282
tp283
Rp284
asg35
(lp285
F383.7660298347473
asg37
(lp286
F67.63726769635836
asg39
(lp287
g13
(g17
S'\xc0\xc2N>X\xf7s@'
p288
tp289
Rp290
asg44
(lp291
F-109.9
asg46
(lp292
g13
(g17
S'n\x02\x14q\x9ckD@'
p293
tp294
Rp295
asg51
(lp296
g13
(g17
S':\xab\xfc6\x97\x1e[@'
p297
tp298
Rp299
asg56
(lp300
F0.001
asg58
(lp301
g13
(g17
S'\r~\x11\xa2`k\x93?'
p302
tp303
Rp304
asg63
(lp305
g13
(g17
S'\x90\x94\xe8D\xa1\x0c\xf1?'
p306
tp307
Rp308
asg68
(lp309
g13
(g17
S'\xfe\xa5f\x95c\xf5\xee\xbf'
p310
tp311
Rp312
assS'tire-3.cnf'
p313
(dp314
g3
(lp315
g5
(S'26.12846440361733772531178430'
p316
tp317
Rp318
asg9
(lp319
F3.9748380184173584
asg11
(lp320
g13
(g17
S'\x97\xe9\x98~\xa5\x9e\xff?'
p321
tp322
Rp323
asg23
(lp324
F0.08533133284747588
asg25
(lp325
g13
(g17
S'\xb0-H\xfacZg@'
p326
tp327
Rp328
asg30
(lp329
g13
(g17
S'\x0b\xc9{]$\xe1C@'
p330
tp331
Rp332
asg35
(lp333
F3.6947879791259766
asg37
(lp334
F49.236179052993585
asg39
(lp335
g13
(g17
S'\xf2"\xd3\x89\xea\xeeh@'
p336
tp337
Rp338
asg44
(lp339
F36.44
asg46
(lp340
g13
(g17
S'h]\xa2\xf3!\x19:@'
p341
tp342
Rp343
asg51
(lp344
g13
(g17
S'>\xbe\xa7\x0bf\xd5R@'
p345
tp346
Rp347
asg56
(lp348
F0.001
asg58
(lp349
g13
(g17
S'*\xb5\xe4q\x0e\x88\xa4?'
p350
tp351
Rp352
asg63
(lp353
g13
(g17
S"X\x80\xfb\x8b'w\xf9?"
p354
tp355
Rp356
asg68
(lp357
g13
(g17
S'\x0c\x1b\xfa\xc9\xb8\xae\xd4\xbf'
p358
tp359
Rp360
assS'c1355.isc'
p361
(dp362
g3
(lp363
g5
(S'28.41903440295775768610651698'
p364
tp365
Rp366
asg9
(lp367
F90.7188618183136
asg11
(lp368
g13
(g17
S'\xcc\xf6\x11T\x8b\xcc!@'
p369
tp370
Rp371
asg23
(lp372
F0.1820890033436898
asg25
(lp373
g13
(g17
S'kuzo<\x0fr@'
p374
tp375
Rp376
asg30
(lp377
g13
(g17
S'\x83t\xa5\xc3\xdd\xafT@'
p378
tp379
Rp380
asg35
(lp381
F82.99114990234375
asg37
(lp382
F101.05939685574783
asg39
(lp383
g13
(g17
S'd\xde\x8fK\xf1\x83r@'
p384
tp385
Rp386
asg44
(lp387
F119.4
asg46
(lp388
g13
(g17
S'e\x1b\xb0]\x86\x989@'
p389
tp390
Rp391
asg51
(lp392
g13
(g17
S'\xdeA\xe4\xbf\xee\xa9_@'
p393
tp394
Rp395
asg56
(lp396
F0.001
asg58
(lp397
g13
(g17
S'\xb0\x11\xc6\xc1zg\xc1?'
p398
tp399
Rp400
asg63
(lp401
g13
(g17
S'\x1bT\xae=\xae\x1e @'
p402
tp403
Rp404
asg68
(lp405
g13
(g17
S'\xba\td\xe6\xde\r\xcd\xbf'
p406
tp407
Rp408
assS'sat-grid-pbl-0015.cnf'
p409
(dp410
g3
(lp411
g5
(S'125.4425195006362289639072410'
p412
tp413
Rp414
asg9
(lp415
F1.749190092086792
asg11
(lp416
g13
(g17
S'EJ\xb3_\x0c\xd7E@'
p417
tp418
Rp419
asg23
(lp420
F0.5806442007390603
asg25
(lp421
g13
(g17
S'P\x96\n\xcf^\xcbd@'
p422
tp423
Rp424
asg30
(lp425
g13
(g17
S'\t\xb7\x02\x8dV#^@'
p426
tp427
Rp428
asg35
(lp429
F2.884521007537842
asg37
(lp430
F139.35460817737447
asg39
(lp431
g13
(g17
S'P\x96\n\xcf^\xcbd@'
p432
tp433
Rp434
asg44
(lp435
F189.36
asg46
(lp436
g13
(g17
S'\x92\xa0o\xef\xe9\xd40@'
p437
tp438
Rp439
asg51
(lp440
g13
(g17
S'\x08\x8b-1\xf6\x85c@'
p441
tp442
Rp443
asg56
(lp444
F0.1
asg58
(lp445
g13
(g17
S'\x04\xf24\x8e\x1dV\xe0?'
p446
tp447
Rp448
asg63
(lp449
g13
(g17
S'\xd3\x0e\x91\xc7\xba\xe5D@'
p450
tp451
Rp452
asg68
(lp453
g13
(g17
S'\xa0Rx\x8b\xb9\xb6\xff?'
p454
tp455
Rp456
assS'sat-grid-pbl-0025.cnf'
p457
(dp458
g3
(lp459
g5
(S'348.2810069124694245655975633'
p460
tp461
Rp462
asg9
(lp463
F12.01758098602295
asg11
(lp464
g13
(g17
S'G\xe9\xe5+*\xa9_@'
p465
tp466
Rp467
asg23
(lp468
F0.5821983388630801
asg25
(lp469
g13
(g17
S'\x8c\xab\xb3\r\xbb(|@'
p470
tp471
Rp472
asg30
(lp473
g13
(g17
S'\xc9\x9f\xd3\xcf\xfe\x1cu@'
p474
tp475
Rp476
asg35
(lp477
F122.61602091789246
asg37
(lp478
F378.4289202610021
asg39
(lp479
g13
(g17
S'\x8c\xab\xb3\r\xbb(|@'
p480
tp481
Rp482
asg44
(lp483
F529.82
asg46
(lp484
g13
(g17
S'\xac\xdfi\x90/\xb3;@'
p485
tp486
Rp487
asg51
(lp488
g13
(g17
S'\x83w\x84\xd4\x0fby@'
p489
tp490
Rp491
asg56
(lp492
F0.1
asg58
(lp493
g13
(g17
S'\x04\xe8\x91\xa6CD\xe1?'
p494
tp495
Rp496
asg63
(lp497
g13
(g17
S'\xe3\xa5\t\x0b\xc7\xda^@'
p498
tp499
Rp500
asg68
(lp501
g13
(g17
S'4\xea2\x00&\xb5!@'
p502
tp503
Rp504
assS'c499.isc'
p505
(dp506
g3
(lp507
g5
(S'28.41903440295775768610651698'
p508
tp509
Rp510
asg9
(lp511
F41.34975600242615
asg11
(lp512
g13
(g17
S'E\x97"R8O$@'
p513
tp514
Rp515
asg23
(lp516
F0.3065944096439182
asg25
(lp517
g13
(g17
S'\x8fz\x82\x8d$\x9dc@'
p518
tp519
Rp520
asg30
(lp521
g13
(g17
S'W\x11\xda\xe3n>M@'
p522
tp523
Rp524
asg35
(lp525
F29.75365400314331
asg37
(lp526
F74.50244154347213
asg39
(lp527
g13
(g17
S'\x0c{\xbc\x1f\x0f\xe6c@'
p528
tp529
Rp530
asg44
(lp531
F58.3
asg46
(lp532
g13
(g17
S'\x1b\xc2S\xc9\xc2\xef0@'
p533
tp534
Rp535
asg51
(lp536
g13
(g17
S'\xdcG\xe8\xb2\x18\xdcV@'
p537
tp538
Rp539
asg56
(lp540
F0.001
asg58
(lp541
g13
(g17
S'\x96:\x92\xc6\xa0R\xce?'
p542
tp543
Rp544
asg63
(lp545
g13
(g17
S'AM\xb5\xa0P\x83"@'
p546
tp547
Rp548
asg68
(lp549
g13
(g17
S'6\x8d\x1e\xd4\xff]\xb9\xbf'
p550
tp551
Rp552
assS'c432.isc'
p553
(dp554
g3
(lp555
g5
(S'24.95329850015803113902035637'
p556
tp557
Rp558
asg9
(lp559
F3.49200701713562
asg11
(lp560
g13
(g17
S'z\x82gW\x84\xae\x1b@'
p561
tp562
Rp563
asg23
(lp564
F0.2746911702649229
asg25
(lp565
g13
(g17
S'\x18;So\xb6\xaf^@'
p566
tp567
Rp568
asg30
(lp569
g13
(g17
S"'\x84f5\x80\xaeE@"
p570
tp571
Rp572
asg35
(lp573
F4.13487696647644
asg37
(lp574
F53.839469371924885
asg39
(lp575
g13
(g17
S'\xe3[i\x947M_@'
p576
tp577
Rp578
asg44
(lp579
F55.68
asg46
(lp580
g13
(g17
S'H}\x8a\xb7\xe5k.@'
p581
tp582
Rp583
asg51
(lp584
g13
(g17
S'\xf8\xe9\xaf\x946CQ@'
p585
tp586
Rp587
asg56
(lp588
F0.001
asg58
(lp589
g13
(g17
S'\xca\xec\xf8\xe7\x17:\xc9?'
p590
tp591
Rp592
asg63
(lp593
g13
(g17
S'\xac\x91I\xf4\xe6\xba\x18@'
p594
tp595
Rp596
asg68
(lp597
g13
(g17
S'\x00f\xd9\xad?\xa4\xb2\xbf'
p598
tp599
Rp600
assS'c880.isc'
p601
(dp602
g3
(lp603
g5
(S'41.58883083359671856503392729'
p604
tp605
Rp606
asg9
(lp607
F76.14870095252991
asg11
(lp608
g13
(g17
S">S\x0f\x97gY'@"
p609
tp610
Rp611
asg23
(lp612
F0.2482673173631259
asg25
(lp613
g13
(g17
S'\xfd&40\xf9\x1co@'
p614
tp615
Rp616
asg30
(lp617
g13
(g17
S"\x90\x03t'\xb7\x89T@"
p618
tp619
Rp620
asg35
(lp621
F67.63302803039551
asg37
(lp622
F103.5274713404235
asg39
(lp623
g13
(g17
S'\x7f+\xb9\xcb!\xaco@'
p624
tp625
Rp626
asg44
(lp627
F91.4
asg46
(lp628
g13
(g17
S't\xf7\x82S\xc3/6@'
p629
tp630
Rp631
asg51
(lp632
g13
(g17
S'l\xea\x07\xec\xb2m_@'
p633
tp634
Rp635
asg56
(lp636
F0.001
asg58
(lp637
g13
(g17
S'\x07X\x8e\x85\xcb\xf7\xc8?'
p638
tp639
Rp640
asg63
(lp641
g13
(g17
S'\xf3\xd0\x022\x83k%@'
p642
tp643
Rp644
asg68
(lp645
g13
(g17
S'\x98\xdd\x98U\xf4\xfd\xc5\xbf'
p646
tp647
Rp648
assS'ra.cnf'
p649
(dp650
g3
(lp651
g5
(S'659.1673732008658148371471422'
p652
tp653
Rp654
asg9
(lp655
F18.022876977920532
asg11
(lp656
g13
(g17
S'\xbf$\xee\xefm_l@'
p657
tp658
Rp659
asg23
(lp660
F0.5799009635659294
asg25
(lp661
g13
(g17
S'\xed\x07\xc4\xdd\xd6\xc5\x8a@'
p662
tp663
Rp664
asg30
(lp665
g13
(g17
S'\x0b\xcc\xa6g\x1b}\x83@'
p666
tp667
Rp668
asg35
(lp669
F10.241905927658081
asg37
(lp670
F716.7575909674887
asg39
(lp671
g13
(g17
S'\xed\x07\xc4\xdd\xd6\xc5\x8a@'
p672
tp673
Rp674
asg44
(lp675
F1045.94
asg46
(lp676
g13
(g17
S'\x18\x81\x1d\xa4=\x19C@'
p677
tp678
Rp679
asg51
(lp680
g13
(g17
S'\xf0@\x1cf\xa3\x97\x87@'
p681
tp682
Rp683
asg56
(lp684
F0.25
asg58
(lp685
g13
(g17
S'\x13\xbb\xd3Ub\x91\xe1?'
p686
tp687
Rp688
asg63
(lp689
g13
(g17
S'\xdb\x1f`E\r\xd5k@'
p690
tp691
Rp692
asg68
(lp693
g13
(g17
S'\x88\xdd\xfazsN9@'
p694
tp695
Rp696
assS'sat-grid-pbl-0020.cnf'
p697
(dp698
g3
(lp699
g5
(S'220.3660190724091582010586847'
p700
tp701
Rp702
asg9
(lp703
F4.649206161499023
asg11
(lp704
g13
(g17
S'\xe2\x1fi\xd9\x97?S@'
p705
tp706
Rp707
asg23
(lp708
F0.5647133471514267
asg25
(lp709
g13
(g17
S'\x86C)\xf5\xf21r@'
p710
tp711
Rp712
asg30
(lp713
g13
(g17
S'4@\xe1\xd1Qwj@'
p714
tp715
Rp716
asg35
(lp717
F32.01563501358032
asg37
(lp718
F237.17960580359923
asg39
(lp719
g13
(g17
S'\x86C)\xf5\xf21r@'
p720
tp721
Rp722
asg44
(lp723
F331.82
asg46
(lp724
g13
(g17
S'\x94\xbb\xfe<(D6@'
p725
tp726
Rp727
asg51
(lp728
g13
(g17
S'\xd0\xb5%."7p@'
p729
tp730
Rp731
asg56
(lp732
F0.1
asg58
(lp733
g13
(g17
S'\xb8kK\x84\xd5_\xe0?'
p734
tp735
Rp736
asg63
(lp737
g13
(g17
S'\xa1\x98\xc4\x7f\xf6\x9eR@'
p738
tp739
Rp740
asg68
(lp741
g13
(g17
S'\xac\xfbp\xc5,\xed\x10@'
p742
tp743
Rp744
assS'rb.cnf'
p745
(dp746
g3
(lp747
g5
(S'855.9432668896412104221506170'
p748
tp749
Rp750
asg9
(lp751
F14.796636819839478
asg11
(lp752
g13
(g17
S'\xb2\xb1\x9cK\xdc\xc9q@'
p753
tp754
Rp755
asg23
(lp756
F0.48790326009267077
asg25
(lp757
g13
(g17
S'\xf2\x05S&a\x14\x94@'
p758
tp759
Rp760
asg30
(lp761
g13
(g17
S'\xda\\\x91+N\xba\x8a@'
p762
tp763
Rp764
asg35
(lp765
F1022.340117931366
asg37
(lp766
F904.5726442118116
asg39
(lp767
g13
(g17
S'\xf2\x05S&a\x14\x94@'
p768
tp769
Rp770
asg44
(lp771
F1223.18
asg46
(lp772
g13
(g17
S'\xf7\xa4g\x94\x12dG@'
p773
tp774
Rp775
asg51
(lp776
g13
(g17
S'\x1b\x8a\xc3\xef\xd5\xba\x8d@'
p777
tp778
Rp779
asg56
(lp780
F0.01
asg58
(lp781
g13
(g17
S'\xc7\x9e\x89\x18d\x9c\xdd?'
p782
tp783
Rp784
asg63
(lp785
g13
(g17
S'!\x9d\x15\x1eX|q@'
p786
tp787
Rp788
asg68
(lp789
g13
(g17
S'\xc0\x9eeMOr\xee?'
p790
tp791
Rp792
assS'c1908.isc'
p793
(dp794
g3
(lp795
g5
(S'22.87385695847819521076866001'
p796
tp797
Rp798
asg9
(lp799
F155.17739915847778
asg11
(lp800
g13
(g17
S'\x81Cj96~\x1c@'
p801
tp802
Rp803
asg23
(lp804
F0.1529963807519693
asg25
(lp805
g13
(g17
S'\xe6/!\xd0\x03\x0eu@'
p806
tp807
Rp808
asg30
(lp809
g13
(g17
S'E\xb7\xcewv\x87U@'
p810
tp811
Rp812
asg35
(lp813
F201.8355209827423
asg37
(lp814
F114.90028194472896
asg39
(lp815
g13
(g17
S'L\xee-\xf9f\xb8u@'
p816
tp817
Rp818
asg44
(lp819
F123.06
asg46
(lp820
g13
(g17
S'~\xe3eZ;\xc6=@'
p821
tp822
Rp823
asg51
(lp824
g13
(g17
S'\xb9ua\x87\x96\x15b@'
p825
tp826
Rp827
asg56
(lp828
F0.001
asg58
(lp829
g13
(g17
S'\xaf\xb8\xc7j\x83\x04\xbd?'
p830
tp831
Rp832
asg63
(lp833
g13
(g17
S'j\xfb\xdcSK\x7f\x19@'
p834
tp835
Rp836
asg68
(lp837
g13
(g17
S'0t%\xb0\x8a\xcf\xd5\xbf'
p838
tp839
Rp840
assS'tire-4.cnf'
p841
(dp842
g3
(lp843
g5
(S'32.26760906093560147581645240'
p844
tp845
Rp846
asg9
(lp847
F5.143627166748047
asg11
(lp848
g13
(g17
S'|\x8c\xd3g\xc1\x1d\x05@'
p849
tp850
Rp851
asg23
(lp852
F0.08536153275287922
asg25
(lp853
g13
(g17
S'\x8d\x8e\xcbd\xc1$p@'
p854
tp855
Rp856
asg30
(lp857
g13
(g17
S'\x11\xf2W\x00*AK@'
p858
tp859
Rp860
asg35
(lp861
F5.543762922286987
asg37
(lp862
F69.31356459533792
asg39
(lp863
g13
(g17
S'\x94<\xd4y\xc2\x18q@'
p864
tp865
Rp866
asg44
(lp867
F33.4
asg46
(lp868
g13
(g17
S'\xd4\nq6\xbf\xf5>@'
p869
tp870
Rp871
asg51
(lp872
g13
(g17
S'\xf0\xcc\xd8>\x81\x11Y@'
p873
tp874
Rp875
asg56
(lp876
F0.001
asg58
(lp877
g13
(g17
S'\x8b\x1a.\xd4\xfd.\xa8?'
p878
tp879
Rp880
asg63
(lp881
g13
(g17
S'\xa3\xe7\xa9\x82\xba\x88\x01@'
p882
tp883
Rp884
asg68
(lp885
g13
(g17
S'8\xc6\xd0\x8b\x9f\xe1\xdd\xbf'
p886
tp887
Rp888
assS'tire-2.cnf'
p889
(dp890
g3
(lp891
g5
(S'27.32852267575170047911478367'
p892
tp893
Rp894
asg9
(lp895
F3.1186211109161377
asg11
(lp896
g13
(g17
S'\xd3\x85\xf1\x0b\xb3\n\x03@'
p897
tp898
Rp899
asg23
(lp900
F0.10471352019945183
asg25
(lp901
g13
(g17
S'i\xf5\xa1\xf9\x9f\x12h@'
p902
tp903
Rp904
asg30
(lp905
g13
(g17
S'\xf4\x03k\xdb\xe7LE@'
p906
tp907
Rp908
asg35
(lp909
F3.0724871158599854
asg37
(lp910
F57.59243610969851
asg39
(lp911
g13
(g17
S'\x97\x86\x88MH\x86i@'
p912
tp913
Rp914
asg44
(lp915
F37.08
asg46
(lp916
g13
(g17
S'\xf0o\xbc4\xf1z9@'
p917
tp918
Rp919
asg51
(lp920
g13
(g17
S'\xf5#T\xc6\xa6\xc4T@'
p921
tp922
Rp923
asg56
(lp924
F0.001
asg58
(lp925
g13
(g17
S'\xb4a}\x8b\xbe\xe4\xad?'
p926
tp927
Rp928
asg63
(lp929
g13
(g17
S'h\xf5]\x8f\rL\xff?'
p930
tp931
Rp932
asg68
(lp933
g13
(g17
S'\x1eo\x9fUl\x9a\xd3\xbf'
p934
tp935
Rp936
assS'sat-grid-pbl-0030.cnf'
p937
(dp938
g3
(lp939
g5
(S'502.3959132375194767325914187'
p940
tp941
Rp942
asg9
(lp943
F11.615789890289307
asg11
(lp944
g13
(g17
S'\xfa\xd2\xa5$\x0c\x91f@'
p945
tp946
Rp947
asg23
(lp948
F0.5922142421455043
asg25
(lp949
g13
(g17
S'\x9eA\x92\xd8\x03%\x84@'
p950
tp951
Rp952
asg30
(lp953
g13
(g17
S"\xbc\xbd\xf5\xda\x1b'~@"
p954
tp955
Rp956
asg35
(lp957
F56.293673038482666
asg37
(lp958
F550.7592451953191
asg39
(lp959
g13
(g17
S'\x9eA\x92\xd8\x03%\x84@'
p960
tp961
Rp962
asg44
(lp963
F774.22
asg46
(lp964
g13
(g17
S'\xdd\xc2\x03{\r\x91@@'
p965
tp966
Rp967
asg51
(lp968
g13
(g17
S'\x81X\xd5\xc6#?\x82@'
p969
tp970
Rp971
asg56
(lp972
F0.1
asg58
(lp973
g13
(g17
S'\xf6\xcc\x8c\xca\x8f\xcf\xe1?'
p974
tp975
Rp976
asg63
(lp977
g13
(g17
S'p~\x9b\xc9\xb5\x15f@'
p978
tp979
Rp980
asg68
(lp981
g13
(g17
S"\xc0 '\xd2\x88\xde-@"
p982
tp983
Rp984
assS'log-2.cnf'
p985
(dp986
g3
(lp987
g5
(S'24.19940808387429746877865551'
p988
tp989
Rp990
asg9
(lp991
F485.0683250427246
asg11
(lp992
g13
(g17
S'\xa6\xc7u\x0c\x05,\xf4?'
p993
tp994
Rp995
asg23
(lp996
F0.042705672177070754
asg25
(lp997
g13
(g17
S'\x9f)\xa8:\xc0\x1dq@'
p998
tp999
Rp1000
asg30
(lp1001
g13
(g17
S'5Y|\xe2\x87+H@'
p1002
tp1003
Rp1004
asg35
(lp1005
F573.2637269496918
asg37
(lp1006
F57.097483700743595
asg39
(lp1007
g13
(g17
S'\xb7\xc54\x0c\xf9\xb3r@'
p1008
tp1009
Rp1010
asg44
(lp1011
F-88.42
asg46
(lp1012
g13
(g17
S'\xb1\x1d\x03\xcb\x14\xddC@'
p1013
tp1014
Rp1015
asg51
(lp1016
g13
(g17
S'f4\xc8\x91\xc74X@'
p1017
tp1018
Rp1019
asg56
(lp1020
F0.001
asg58
(lp1021
g13
(g17
S'\xfd\xb6\xf3\xfa\x8a\x9b\x8a?'
p1022
tp1023
Rp1024
asg63
(lp1025
g13
(g17
S'K\x9c\xdb\x07\x92\xa5\xee?'
p1026
tp1027
Rp1028
asg68
(lp1029
g13
(g17
S'"\x14\'\xdbq\xd4\xec\xbf'
p1030
tp1031
Rp1032
assI100
I100
tp1033
.