((dp0
S'log-4.cnf'
p1
(dp2
S'gumb_compute_time'
p3
(lp4
F0.0
asS'exact_log_Z'
p5
(lp6
cdecimal
Decimal
p7
(S'94.24182076713446859011815549'
p8
tp9
Rp10
asS'gumbel_expectation_UB'
p11
(lp12
F0.0
asS'massart_gumbelPerturb_LB_lambda'
p13
(lp14
F0.1
asS'barv_high_prob_UB'
p15
(lp16
cnumpy.core.multiarray
scalar
p17
(cnumpy
dtype
p18
(S'f8'
p19
I0
I1
tp20
Rp21
(I3
S'<'
p22
NNNI-1
I-1
I0
tp23
bS'n@\x19\x0e\x9f\xd3\x8c@'
p24
tp25
Rp26
asS'barv_estimator_median'
p27
(lp28
g17
(g21
S'\x00\x00\x00\x00\x00\x00b@'
p29
tp30
Rp31
asS'barv_compute_time'
p32
(lp33
F31.545114994049072
asS'delta_k_gumbel_perturb'
p34
(lp35
g17
(g21
S'E4\xd2\x84\xeaXj@'
p36
tp37
Rp38
asS'barv_expectation_LB'
p39
(lp40
g17
(g21
S'e\x8b\xe6\x1a\xf2\x82\x12@'
p41
tp42
Rp43
asS'gumbel_expectation_LB'
p44
(lp45
F0.0
asS'massart_gumbelPerturb_LB_lambda_expectation_est'
p46
(lp47
F0.1
asS'epsilon_g'
p48
(lp49
g17
(g21
S'M\xda\x8c\xca\x16\x96B@'
p50
tp51
Rp52
asS'gumbel_high_prob_UB'
p53
(lp54
F0.0
asS'massart_gumbelPerturb_LB_expectation_est'
p55
(lp56
g17
(g21
S't3\xbf\x1f\xf4\xee\x1d@'
p57
tp58
Rp59
asS'delta_k_gumbel_perturb_median'
p60
(lp61
g17
(g21
S'\x84\x08\xc7\x9a\xf5Vh@'
p62
tp63
Rp64
asS'barv_expectation_UB'
p65
(lp66
g17
(g21
S'\x80/\xe2\xc7\x83\x86\x88@'
p67
tp68
Rp69
asS'barv_estimator'
p70
(lp71
g17
(g21
S'\x00\x00\x00\x00\x00@b@'
p72
tp73
Rp74
asS'gumbel_high_prob_LB'
p75
(lp76
F0.0
asS'barv_high_prob_LB'
p77
(lp78
g17
(g21
S'\xab\x08H\xf3C\xad\r@'
p79
tp80
Rp81
asS'massart_gumbelPerturb_LB'
p82
(lp83
g17
(g21
S'p\xd6i\xfb\xf6 \x0e@'
p84
tp85
Rp86
assS'sat-grid-pbl-0010.cnf'
p87
(dp88
g3
(lp89
F9.5367431640625e-07
asg5
(lp90
g7
(S'78.97471862885066913762932347'
p91
tp92
Rp93
asg11
(lp94
F0.0
asg13
(lp95
F0.5
asg15
(lp96
g17
(g21
S'\xff\xff\xff\xff\xff\x7f[@'
p97
tp98
Rp99
asg27
(lp100
g17
(g21
S'\x00\x00\x00\x00\x00\x00S@'
p101
tp102
Rp103
asg32
(lp104
F0.10949420928955078
asg34
(lp105
g17
(g21
S'\xec\xf45\xabI\xb3T@'
p106
tp107
Rp108
asg39
(lp109
g17
(g21
S'M\xf1\x10{u\xd79@'
p110
tp111
Rp112
asg44
(lp113
F0.0
asg46
(lp114
F0.5
asg48
(lp115
g17
(g21
S'\x0c\xb86\xf6\x81? @'
p116
tp117
Rp118
asg53
(lp119
F0.0
asg55
(lp120
g17
(g21
S'\x9a\nZ\x96\xcf96@'
p121
tp122
Rp123
asg60
(lp124
g17
(g21
S'E\xde\x95\xec\x16\xcaT@'
p125
tp126
Rp127
asg65
(lp128
g17
(g21
S'\xff\xff\xff\xff\xff\x7f[@'
p129
tp130
Rp131
asg70
(lp132
g17
(g21
S'\x9a\x99\x99\x99\x99\xd9R@'
p133
tp134
Rp135
asg75
(lp136
F0.0
asg77
(lp137
g17
(g21
S'B)!^7\xae=@'
p138
tp139
Rp140
asg82
(lp141
g17
(g21
S'\x96\\\xcc\x18\xef)2@'
p142
tp143
Rp144
assS'tire-1.cnf'
p145
(dp146
g3
(lp147
F9.5367431640625e-07
asg5
(lp148
g7
(S'29.43627003160238041586099203'
p149
tp150
Rp151
asg11
(lp152
F0.0
asg13
(lp153
F0.1
asg15
(lp154
g17
(g21
S'\x1c\xc1\xea\x0c\xd3\x86p@'
p155
tp156
Rp157
asg27
(lp158
g17
(g21
S'\x00\x00\x00\x00\x00\x00O@'
p159
tp160
Rp161
asg32
(lp162
F0.2861189842224121
asg34
(lp163
g17
(g21
S'\x98\r\xfb\xe7\xd4\xe8O@'
p164
tp165
Rp166
asg39
(lp167
g17
(g21
S'\x89\x9a~\xa8\xe9G\x15@'
p168
tp169
Rp170
asg44
(lp171
F0.0
asg46
(lp172
F0.1
asg48
(lp173
g17
(g21
S'\x08\xe3\x0b\xe6\xc0\x10-@'
p174
tp175
Rp176
asg53
(lp177
F0.0
asg55
(lp178
g17
(g21
S'\xf6=\xfa8[7\x11@'
p179
tp180
Rp181
asg60
(lp182
g17
(g21
S"\xc1'B_\xa5\x90Q@"
p183
tp184
Rp185
asg65
(lp186
g17
(g21
S'\xe9\x98)d\x16Sm@'
p187
tp188
Rp189
asg70
(lp190
g17
(g21
S'\x9a\x99\x99\x99\x99\x99N@'
p191
tp192
Rp193
asg75
(lp194
F0.0
asg77
(lp195
g17
(g21
S'\xc0\xad\xe8\x81\x1c\xda\x11@'
p196
tp197
Rp198
asg82
(lp199
g17
(g21
S'\xe8\xed"Ii\xce\x06@'
p200
tp201
Rp202
assS'log-1.cnf'
p203
(dp204
g3
(lp205
F9.5367431640625e-07
asg5
(lp206
g7
(S'68.93464978961923353115339571'
p207
tp208
Rp209
asg11
(lp210
F0.0
asg13
(lp211
F0.1
asg15
(lp212
g17
(g21
S'\x1dt\x8c\xed\xb1\x13\x7f@'
p213
tp214
Rp215
asg27
(lp216
g17
(g21
S'\x00\x00\x00\x00\x00\xc0Y@'
p217
tp218
Rp219
asg32
(lp220
F0.5818390846252441
asg34
(lp221
g17
(g21
S'\x0b\xbd\\\xe1\xaf\xc8_@'
p222
tp223
Rp224
asg39
(lp225
g17
(g21
S'\xe44\xba\xff\x02\xdf\x10@'
p226
tp227
Rp228
asg44
(lp229
F0.0
asg46
(lp230
F0.1
asg48
(lp231
g17
(g21
S'\xd7\t=\xadm\xbc7@'
p232
tp233
Rp234
asg53
(lp235
F0.0
asg55
(lp236
g17
(g21
S'\xb6\xb4\xa61\xcb\xae\x1c@'
p237
tp238
Rp239
asg60
(lp240
g17
(g21
S':\xff{tI]`@'
p241
tp242
Rp243
asg65
(lp244
g17
(g21
S"`\x1bt'V\x8az@"
p245
tp246
Rp247
asg70
(lp248
g17
(g21
S'\x00\x00\x00\x00\x00@V@'
p249
tp250
Rp251
asg75
(lp252
F0.0
asg77
(lp253
g17
(g21
S'\xdd\x1a\x03C?-\n@'
p254
tp255
Rp256
asg82
(lp257
g17
(g21
S',\x17[\xec80\x13@'
p258
tp259
Rp260
assS'c2670.isc'
p261
(dp262
g3
(lp263
F9.5367431640625e-07
asg5
(lp264
g7
(S'233.0000000000000000000000000'
p265
tp266
Rp267
asg11
(lp268
F0.0
asg13
(lp269
F0.25
asg15
(lp270
g17
(g21
S'\x98\x0b\xe4\xe9\xb1\x87\x91@'
p271
tp272
Rp273
asg27
(lp274
g17
(g21
S'\x00\x00\x00\x00\x00Pw@'
p275
tp276
Rp277
asg32
(lp278
F22.606578826904297
asg34
(lp279
g17
(g21
S'\xba\xa0\xb2\xff\x9cC{@'
p280
tp281
Rp282
asg39
(lp283
g17
(g21
S'\xf6\xa8\xe4\xf5\xb0\xa4L@'
p284
tp285
Rp286
asg44
(lp287
F0.0
asg46
(lp288
F0.25
asg48
(lp289
g17
(g21
S'5\xf4F)\x89*;@'
p290
tp291
Rp292
asg53
(lp293
F0.0
asg55
(lp294
g17
(g21
S"\x0f\x8e'\xa1\xc0\x84N@"
p295
tp296
Rp297
asg60
(lp298
g17
(g21
S'c\xe7\xcd\xad\t\xd2{@'
p299
tp300
Rp301
asg65
(lp302
g17
(g21
S'\xfb\xbbo\xd5\xc9\x0e\x91@'
p303
tp304
Rp305
asg70
(lp306
g17
(g21
S'fffffvw@'
p307
tp308
Rp309
asg75
(lp310
F0.0
asg77
(lp311
g17
(g21
S'\x89\xee\x10H\x92\xc7Q@'
p312
tp313
Rp314
asg82
(lp315
g17
(g21
S'\x89\xaf\xfe{o\x1fK@'
p316
tp317
Rp318
assS'log-3.cnf'
p319
(dp320
g3
(lp321
F9.5367431640625e-07
asg5
(lp322
g7
(S'38.02590125972192792986888030'
p323
tp324
Rp325
asg11
(lp326
F0.0
asg13
(lp327
F0.01
asg15
(lp328
g17
(g21
S'\xa9\xfbe*\xdb\xcd\x80@'
p329
tp330
Rp331
asg27
(lp332
g17
(g21
S'\x00\x00\x00\x00\x00@V@'
p333
tp334
Rp335
asg32
(lp336
F36.991682052612305
asg34
(lp337
g17
(g21
S'\xc6\xda\xe7NJ\x97V@'
p338
tp339
Rp340
asg39
(lp341
g17
(g21
S'\xb5\x03U\xf1\x07\x18\x00@'
p342
tp343
Rp344
asg44
(lp345
F0.0
asg46
(lp346
F0.01
asg48
(lp347
g17
(g21
S'\x15\x00\xdf\x0f\xf4\x1d=@'
p348
tp349
Rp350
asg53
(lp351
F0.0
asg55
(lp352
g17
(g21
S'dW\x06\xd8\xa3N\xea?'
p353
tp354
Rp355
asg60
(lp356
g17
(g21
S'k\xb2\x83\xfb\x91\x81X@'
p357
tp358
Rp359
asg65
(lp360
g17
(g21
S'T\xfa>\x9d\xe7\x89z@'
p361
tp362
Rp363
asg70
(lp364
g17
(g21
S'\x9a\x99\x99\x99\x99\xd9R@'
p365
tp366
Rp367
asg75
(lp368
F0.0
asg77
(lp369
g17
(g21
S'\x037\xa5\xd0?\x7f\xf1?'
p370
tp371
Rp372
asg82
(lp373
g17
(g21
S'\xf7\xf0\xe7\xfb_\xfd\xe0?'
p374
tp375
Rp376
assS'tire-3.cnf'
p377
(dp378
g3
(lp379
F0.0
asg5
(lp380
g7
(S'37.69540602114253993963436454'
p381
tp382
Rp383
asg11
(lp384
F0.0
asg13
(lp385
F0.1
asg15
(lp386
g17
(g21
S'm\xefK<3\xe5s@'
p387
tp388
Rp389
asg27
(lp390
g17
(g21
S'\x00\x00\x00\x00\x00\x00L@'
p391
tp392
Rp393
asg32
(lp394
F0.3904721736907959
asg34
(lp395
g17
(g21
S'\xd8r\x83\x7f\xc0\x0eR@'
p396
tp397
Rp398
asg39
(lp399
g17
(g21
S'r\x1d\re\x92\x1f\x05@'
p400
tp401
Rp402
asg44
(lp403
F0.0
asg46
(lp404
F0.1
asg48
(lp405
g17
(g21
S'\xd1\x06\xf0V@\x9b2@'
p406
tp407
Rp408
asg53
(lp409
F0.0
asg55
(lp410
g17
(g21
S'\x17\x8d\x94CN\x89\x0e@'
p411
tp412
Rp413
asg60
(lp414
g17
(g21
S'\xe9\x91\xfbD\x85pR@'
p415
tp416
Rp417
asg65
(lp418
g17
(g21
S'\xde*R!\x90ip@'
p419
tp420
Rp421
asg70
(lp422
g17
(g21
S'\x9a\x99\x99\x99\x99\x99K@'
p423
tp424
Rp425
asg75
(lp426
F0.0
asg77
(lp427
g17
(g21
S'5\xc9_\x90\x0e\xc9\xfa?'
p428
tp429
Rp430
asg82
(lp431
g17
(g21
S'zB\xdc\xc8hM\xff?'
p432
tp433
Rp434
assS'c1355.isc'
p435
(dp436
g3
(lp437
F0.0
asg5
(lp438
g7
(S'41.00000000000000000000000000'
p439
tp440
Rp441
asg11
(lp442
F0.0
asg13
(lp443
F0.25
asg15
(lp444
g17
(g21
S'\x9c\xee1\xba(\xa5{@'
p445
tp446
Rp447
asg27
(lp448
g17
(g21
S'\x00\x00\x00\x00\x00\xc0\\@'
p449
tp450
Rp451
asg32
(lp452
F9.175981044769287
asg34
(lp453
g17
(g21
S'z|\x85T\x02lb@'
p454
tp455
Rp456
asg39
(lp457
g17
(g21
S'\xc4\xac\xe4\x12\x00\x14(@'
p458
tp459
Rp460
asg44
(lp461
F0.0
asg46
(lp462
F0.25
asg48
(lp463
g17
(g21
S'+\xe5\x8a\xc6\x8f?2@'
p464
tp465
Rp466
asg53
(lp467
F0.0
asg55
(lp468
g17
(g21
S',|\nvfZ.@'
p469
tp470
Rp471
asg60
(lp472
g17
(g21
S'\x9f\xa1\x9b\xbd\x888c@'
p473
tp474
Rp475
asg65
(lp476
g17
(g21
S'`\xa0]\xfa2\x9by@'
p477
tp478
Rp479
asg70
(lp480
g17
(g21
S'fffff\xe6\\@'
p481
tp482
Rp483
asg75
(lp484
F0.0
asg77
(lp485
g17
(g21
S'\x0c1\t\x82\xcb\xa2(@'
p486
tp487
Rp488
asg82
(lp489
g17
(g21
S'\x98\t\xc5\x92\x9e:%@'
p490
tp491
Rp492
assS'sat-grid-pbl-0015.cnf'
p493
(dp494
g3
(lp495
F0.0
asg5
(lp496
g7
(S'180.9753008001849739336326952'
p497
tp498
Rp499
asg11
(lp500
F0.0
asg13
(lp501
F0.5
asg15
(lp502
g17
(g21
S'\x00\x00\x00\x00\x00\x00n@'
p503
tp504
Rp505
asg27
(lp506
g17
(g21
S'\x00\x00\x00\x00\x00\x00f@'
p507
tp508
Rp509
asg32
(lp510
F0.2444171905517578
asg34
(lp511
g17
(g21
S'Z\x88&(\xd4\x15g@'
p512
tp513
Rp514
asg39
(lp515
g17
(g21
S'\x15g\x1f>\xc3\xaeO@'
p516
tp517
Rp518
asg44
(lp519
F0.0
asg46
(lp520
F0.5
asg48
(lp521
g17
(g21
S'\x00\x00\x00\x00\x00\x00(@'
p522
tp523
Rp524
asg53
(lp525
F0.0
asg55
(lp526
g17
(g21
S'\x14\xc0\xf38\xa4@I@'
p527
tp528
Rp529
asg60
(lp530
g17
(g21
S'H\x9e\xb7M\xaa\xabg@'
p531
tp532
Rp533
asg65
(lp534
g17
(g21
S'\x00\x00\x00\x00\x00\x00n@'
p535
tp536
Rp537
asg70
(lp538
g17
(g21
S'\xcd\xcc\xcc\xcc\xcc\xcce@'
p539
tp540
Rp541
asg75
(lp542
F0.0
asg77
(lp543
g17
(g21
S'\xbf\xcdc1=\xd1S@'
p544
tp545
Rp546
asg82
(lp547
g17
(g21
S'\x14\xc0\xf38\xa4@F@'
p548
tp549
Rp550
assS'sat-grid-pbl-0025.cnf'
p551
(dp552
g3
(lp553
F0.0
asg5
(lp554
g7
(S'502.4632815084344235960960599'
p555
tp556
Rp557
asg11
(lp558
F0.0
asg13
(lp559
F0.5
asg15
(lp560
g17
(g21
S'\x00\x00\x00\x00\x00P\x84@'
p561
tp562
Rp563
asg27
(lp564
g17
(g21
S'\x00\x00\x00\x00\x00\x00\x7f@'
p565
tp566
Rp567
asg32
(lp568
F1.3509330749511719
asg34
(lp569
g17
(g21
S'U\xca\xbb\xf0\xfb\x94\x80@'
p570
tp571
Rp572
asg39
(lp573
g17
(g21
S'\xd7)\x10kB\x94g@'
p574
tp575
Rp576
asg44
(lp577
F0.0
asg46
(lp578
F0.5
asg48
(lp579
g17
(g21
S'wl\xb5L\x98\xbf3@'
p580
tp581
Rp582
asg53
(lp583
F0.0
asg55
(lp584
g17
(g21
S'h\x1bS\x1c-\x00c@'
p585
tp586
Rp587
asg60
(lp588
g17
(g21
S'\xbc\xb6<\x89\x0cz\x80@'
p589
tp590
Rp591
asg65
(lp592
g17
(g21
S'\x00\x00\x00\x00\x00P\x84@'
p593
tp594
Rp595
asg70
(lp596
g17
(g21
S'33333\xf3~@'
p597
tp598
Rp599
asg75
(lp600
F0.0
asg77
(lp601
g17
(g21
S'\xb9\x88\x03\x9f\xbf[o@'
p602
tp603
Rp604
asg82
(lp605
g17
(g21
S'\xa1\xc4\x87\x973\xc4a@'
p606
tp607
Rp608
assS'c499.isc'
p609
(dp610
g3
(lp611
F0.0
asg5
(lp612
g7
(S'41.00000000000000000000000000'
p613
tp614
Rp615
asg11
(lp616
F0.0
asg13
(lp617
F0.25
asg15
(lp618
g17
(g21
S'\xa3G3e\x01\xd0m@'
p619
tp620
Rp621
asg27
(lp622
g17
(g21
S'\x00\x00\x00\x00\x00\xc0V@'
p623
tp624
Rp625
asg32
(lp626
F4.1022820472717285
asg34
(lp627
g17
(g21
S'&\xd6\xf5\x8e\xe2lZ@'
p628
tp629
Rp630
asg39
(lp631
g17
(g21
S'\xab\xaa\xaa\xaa\xaa\xaa0@'
p632
tp633
Rp634
asg44
(lp635
F0.0
asg46
(lp636
F0.25
asg48
(lp637
g17
(g21
S'\xb0\xf0\xd9\xdeG&(@'
p638
tp639
Rp640
asg53
(lp641
F0.0
asg55
(lp642
g17
(g21
S'\xd1ZF5G\xf00@'
p643
tp644
Rp645
asg60
(lp646
g17
(g21
S'\x8e\x93rE\xc0\xf3Y@'
p647
tp648
Rp649
asg65
(lp650
g17
(g21
S'Yq\x14]\xa2\xe2l@'
p651
tp652
Rp653
asg70
(lp654
g17
(g21
S'\x00\x00\x00\x00\x00\x80V@'
p655
tp656
Rp657
asg75
(lp658
F0.0
asg77
(lp659
g17
(g21
S'.t)\xaa\x9a\x062@'
p660
tp661
Rp662
asg82
(lp663
g17
(g21
S'v9\xd6r\xfc\xd6+@'
p664
tp665
Rp666
assS'c432.isc'
p667
(dp668
g3
(lp669
F0.0
asg5
(lp670
g7
(S'35.99999999999999999999999999'
p671
tp672
Rp673
asg11
(lp674
F0.0
asg13
(lp675
F0.25
asg15
(lp676
g17
(g21
S'\xfd\x86o\xf8%\\g@'
p677
tp678
Rp679
asg27
(lp680
g17
(g21
S'\x00\x00\x00\x00\x00\x80M@'
p681
tp682
Rp683
asg32
(lp684
F0.35996103286743164
asg34
(lp685
g17
(g21
S'\xe2a\xe6\xd5"uS@'
p686
tp687
Rp688
asg39
(lp689
g17
(g21
S'\xe3\xb2h3\xba\xdd#@'
p690
tp691
Rp692
asg44
(lp693
F0.0
asg46
(lp694
F0.25
asg48
(lp695
g17
(g21
S'\xff\x83\xb7\x15O\xb0%@'
p696
tp697
Rp698
asg53
(lp699
F0.0
asg55
(lp700
g17
(g21
S"2\x8e\xd6\x01\x85\x9c'@"
p701
tp702
Rp703
asg60
(lp704
g17
(g21
S'\xea8)\xd2\xcc]S@'
p705
tp706
Rp707
asg65
(lp708
g17
(g21
S'\xf4\xf9\xad\xe3\x16\x1df@'
p709
tp710
Rp711
asg70
(lp712
g17
(g21
S'333333O@'
p713
tp714
Rp715
asg75
(lp716
F0.0
asg77
(lp717
g17
(g21
S'[\x8cM\x8a\x89\x90#@'
p718
tp719
Rp720
asg82
(lp721
g17
(g21
S'2\xadh<q0"@'
p722
tp723
Rp724
assS'c880.isc'
p725
(dp726
g3
(lp727
F0.0
asg5
(lp728
g7
(S'6E+1'
p729
tp730
Rp731
asg11
(lp732
F0.0
asg13
(lp733
F0.25
asg15
(lp734
g17
(g21
S'i|\x84\xde\xaf\xbaw@'
p735
tp736
Rp737
asg27
(lp738
g17
(g21
S'\x00\x00\x00\x00\x00\x80]@'
p739
tp740
Rp741
asg32
(lp742
F10.052722215652466
asg34
(lp743
g17
(g21
S'\x18\xcb\x8f\xa0,\xa9b@'
p744
tp745
Rp746
asg39
(lp747
g17
(g21
S'\xe6\xe9\xa3\xd5$D1@'
p748
tp749
Rp750
asg44
(lp751
F0.0
asg46
(lp752
F0.25
asg48
(lp753
g17
(g21
S'\xd3O\x00\x18\xab\xa2/@'
p754
tp755
Rp756
asg53
(lp757
F0.0
asg55
(lp758
g17
(g21
S'\xbbcgH\xbd\n5@'
p759
tp760
Rp761
asg60
(lp762
g17
(g21
S'\xa5\x11~\xd3\x9fZb@'
p763
tp764
Rp765
asg65
(lp766
g17
(g21
S'\xb5\x9b6.\xc5\x90v@'
p767
tp768
Rp769
asg70
(lp770
g17
(g21
S'\x00\x00\x00\x00\x00\x00^@'
p771
tp772
Rp773
asg75
(lp774
F0.0
asg77
(lp775
g17
(g21
S'\xa3\x8a=\xa9\x94\xc62@'
p776
tp777
Rp778
asg82
(lp779
g17
(g21
S'\xc1Yg\xe5g\x161@'
p780
tp781
Rp782
assS'ra.cnf'
p783
(dp784
g3
(lp785
F9.5367431640625e-07
asg5
(lp786
g7
(S'950.9775004326937088722433664'
p787
tp788
Rp789
asg11
(lp790
F0.0
asg13
(lp791
F0.5
asg15
(lp792
g17
(g21
S'\x00\x00\x00\x00\x00P\x93@'
p793
tp794
Rp795
asg27
(lp796
g17
(g21
S'\x00\x00\x00\x00\x00\xb0\x8b@'
p797
tp798
Rp799
asg32
(lp800
F2.0304999351501465
asg34
(lp801
g17
(g21
S'\xaa\x0b\xf6\x1a\xd3m\x8e@'
p802
tp803
Rp804
asg39
(lp805
g17
(g21
S'\x0eW\xd1\x7f\x0b\xf9s@'
p806
tp807
Rp808
asg44
(lp809
F0.0
asg46
(lp810
F0.5
asg48
(lp811
g17
(g21
S'\xf8\xf9\r9z;;@'
p812
tp813
Rp814
asg53
(lp815
F0.0
asg55
(lp816
g17
(g21
S'\xf6\xf2\xbax\x88\xf6p@'
p817
tp818
Rp819
asg60
(lp820
g17
(g21
S'\x01\xe3\xd1\x90\xa7\xd5\x8e@'
p821
tp822
Rp823
asg65
(lp824
g17
(g21
S'\x00\x00\x00\x00\x00P\x93@'
p825
tp826
Rp827
asg70
(lp828
g17
(g21
S'fffff\xc6\x8b@'
p829
tp830
Rp831
asg75
(lp832
F0.0
asg77
(lp833
g17
(g21
S':\xe6\xc6=v\x13{@'
p834
tp835
Rp836
asg82
(lp837
g17
(g21
S'&\x83\xf2\xa6\xac\x1cp@'
p838
tp839
Rp840
assS'sat-grid-pbl-0020.cnf'
p841
(dp842
g3
(lp843
F9.5367431640625e-07
asg5
(lp844
g7
(S'317.9209628962074205681936812'
p845
tp846
Rp847
asg11
(lp848
F0.0
asg13
(lp849
F0.5
asg15
(lp850
g17
(g21
S'\x00\x00\x00\x00\x00@z@'
p851
tp852
Rp853
asg27
(lp854
g17
(g21
S'\x00\x00\x00\x00\x00@s@'
p855
tp856
Rp857
asg32
(lp858
F0.5660250186920166
asg34
(lp859
g17
(g21
S'\x92?\x94\x03=\x9dt@'
p860
tp861
Rp862
asg39
(lp863
g17
(g21
S'\x80\x1f}\xbd)t\\@'
p864
tp865
Rp866
asg44
(lp867
F0.0
asg46
(lp868
F0.5
asg48
(lp869
g17
(g21
S'_u\xbc~\xbf\xbf/@'
p870
tp871
Rp872
asg53
(lp873
F0.0
asg55
(lp874
g17
(g21
S'\x98X\xbar\xd6\xecV@'
p875
tp876
Rp877
asg60
(lp878
g17
(g21
S'j\xf8Op\xdc\xe3t@'
p879
tp880
Rp881
asg65
(lp882
g17
(g21
S'\x00\x00\x00\x00\x00@z@'
p883
tp884
Rp885
asg70
(lp886
g17
(g21
S'33333Ss@'
p887
tp888
Rp889
asg75
(lp890
F0.0
asg77
(lp891
g17
(g21
S'\xce}\x90\xcc\xbbxb@'
p892
tp893
Rp894
asg82
(lp895
g17
(g21
S'B\x91\xcez\xda\xf0T@'
p896
tp897
Rp898
assS'rb.cnf'
p899
(dp900
g3
(lp901
F0.0
asg5
(lp902
g7
(S'1234.865106423983844696633852'
p903
tp904
Rp905
asg11
(lp906
F0.0
asg13
(lp907
F0.5
asg15
(lp908
g17
(g21
S'\x00\x00\x00\x00\x00\xf8\x9c@'
p909
tp910
Rp911
asg27
(lp912
g17
(g21
S'\x00\x00\x00\x00\x00\x14\x93@'
p913
tp914
Rp915
asg32
(lp916
F1.3322339057922363
asg34
(lp917
g17
(g21
S'?\xf6zQo\xdf\x93@'
p918
tp919
Rp920
asg39
(lp921
g17
(g21
S"\x88\x946uK'y@"
p922
tp923
Rp924
asg44
(lp925
F0.0
asg46
(lp926
F0.5
asg48
(lp927
g17
(g21
S'X\x9dj\xff#\xad@@'
p928
tp929
Rp930
asg53
(lp931
F0.0
asg55
(lp932
g17
(g21
S'pG\x9d\xaf\xee\x8bs@'
p933
tp934
Rp935
asg60
(lp936
g17
(g21
S'|\xa2)7U\x01\x94@'
p937
tp938
Rp939
asg65
(lp940
g17
(g21
S'\x00\x00\x00\x00\x00\xf8\x9c@'
p941
tp942
Rp943
asg70
(lp944
g17
(g21
S'fffff\x16\x93@'
p945
tp946
Rp947
asg75
(lp948
F0.0
asg77
(lp949
g17
(g21
S'\x99p05\xcb*\x81@'
p950
tp951
Rp952
asg82
(lp953
g17
(g21
S'\x9a\x9d\xa6o\x1c\x81r@'
p954
tp955
Rp956
assS'c1908.isc'
p957
(dp958
g3
(lp959
F9.5367431640625e-07
asg5
(lp960
g7
(S'33.00000000000000000000000000'
p961
tp962
Rp963
asg11
(lp964
F0.0
asg13
(lp965
F0.1
asg15
(lp966
g17
(g21
S'\xed\x8e\xa1\xd6M?\x80@'
p967
tp968
Rp969
asg27
(lp970
g17
(g21
S'\x00\x00\x00\x00\x00\x00^@'
p971
tp972
Rp973
asg32
(lp974
F13.821239948272705
asg34
(lp975
g17
(g21
S'\xf5\x01\x9f8\xd2\x9ca@'
p976
tp977
Rp978
asg39
(lp979
g17
(g21
S'#\x9c\xc3\xfa\x7f\x9a"@'
p980
tp981
Rp982
asg44
(lp983
F0.0
asg46
(lp984
F0.1
asg48
(lp985
g17
(g21
S'\xf9\x18\xb8\x023:5@'
p986
tp987
Rp988
asg53
(lp989
F0.0
asg55
(lp990
g17
(g21
S'\xaa\xc3\xa7+[P#@'
p991
tp992
Rp993
asg60
(lp994
g17
(g21
S'\x92\xb5F{\x9cHb@'
p995
tp996
Rp997
asg65
(lp998
g17
(g21
S'\xcd\xb5\r9fz}@'
p999
tp1000
Rp1001
asg70
(lp1002
g17
(g21
S'\xcd\xcc\xcc\xcc\xcc\x8c]@'
p1003
tp1004
Rp1005
asg75
(lp1006
F0.0
asg77
(lp1007
g17
(g21
S'\x86\x19$\xe1\x96\x10"@'
p1008
tp1009
Rp1010
asg82
(lp1011
g17
(g21
S'\xf0\x169V\x08#\x1e@'
p1012
tp1013
Rp1014
assS'tire-4.cnf'
p1015
(dp1016
g3
(lp1017
F9.5367431640625e-07
asg5
(lp1018
g7
(S'46.55231957355557370674436762'
p1019
tp1020
Rp1021
asg11
(lp1022
F0.0
asg13
(lp1023
F0.1
asg15
(lp1024
g17
(g21
S'0\x90\xcd\x0bEfy@'
p1025
tp1026
Rp1027
asg27
(lp1028
g17
(g21
S'\x00\x00\x00\x00\x00@P@'
p1029
tp1030
Rp1031
asg32
(lp1032
F0.6002140045166016
asg34
(lp1033
g17
(g21
S'sGA\x19\x90dY@'
p1034
tp1035
Rp1036
asg39
(lp1037
g17
(g21
S'\xb48t\x00\xcd`\x06@'
p1038
tp1039
Rp1040
asg44
(lp1041
F0.0
asg46
(lp1042
F0.1
asg48
(lp1043
g17
(g21
S'\xdb\x0b\x02g\x96\x126@'
p1044
tp1045
Rp1046
asg53
(lp1047
F0.0
asg55
(lp1048
g17
(g21
S'\xc8\xba\xdc\xae\xa9t\x15@'
p1049
tp1050
Rp1051
asg60
(lp1052
g17
(g21
S'=x\xa3<)\x05\\@'
p1053
tp1054
Rp1055
asg65
(lp1056
g17
(g21
S'\x17x\xba\xf7\x88\xf1t@'
p1057
tp1058
Rp1059
asg70
(lp1060
g17
(g21
S'\x9a\x99\x99\x99\x99\xd9P@'
p1061
tp1062
Rp1063
asg75
(lp1064
F0.0
asg77
(lp1065
g17
(g21
S'\x11\xeb\xb8\xd5\x024\xfd?'
p1066
tp1067
Rp1068
asg82
(lp1069
g17
(g21
S'\x14lQ\x0b\xdb@\t@'
p1070
tp1071
Rp1072
assS'tire-2.cnf'
p1073
(dp1074
g3
(lp1075
F0.0
asg5
(lp1076
g7
(S'39.42672413912856318873371974'
p1077
tp1078
Rp1079
asg11
(lp1080
F0.0
asg13
(lp1081
F0.1
asg15
(lp1082
g17
(g21
S'\x12\xfd\xb1\xd2:\x01u@'
p1083
tp1084
Rp1085
asg27
(lp1086
g17
(g21
S'\x00\x00\x00\x00\x00@Q@'
p1087
tp1088
Rp1089
asg32
(lp1090
F0.2836160659790039
asg34
(lp1091
g17
(g21
S'~\xdf2\x957`S@'
p1092
tp1093
Rp1094
asg39
(lp1095
g17
(g21
S'\xa9\x00*H\xaaY\x0e@'
p1096
tp1097
Rp1098
asg44
(lp1099
F0.0
asg46
(lp1100
F0.1
asg48
(lp1101
g17
(g21
S'\xe5m\xc7\x8fx*2@'
p1102
tp1103
Rp1104
asg53
(lp1105
F0.0
asg55
(lp1106
g17
(g21
S'\xcf\xfb\xc4U\xcd\x03\x12@'
p1107
tp1108
Rp1109
asg60
(lp1110
g17
(g21
S'\xaa,\xbb\xdb\xf4\xabS@'
p1111
tp1112
Rp1113
asg65
(lp1114
g17
(g21
S'\xdfG&z\x98\xf1q@'
p1115
tp1116
Rp1117
asg70
(lp1118
g17
(g21
S'fffff&P@'
p1119
tp1120
Rp1121
asg75
(lp1122
F0.0
asg77
(lp1123
g17
(g21
S'VB\x93%n\x9f\x06@'
p1124
tp1125
Rp1126
asg82
(lp1127
g17
(g21
S'\x1a\x06\x848:\x7f\x05@'
p1128
tp1129
Rp1130
assS'sat-grid-pbl-0030.cnf'
p1131
(dp1132
g3
(lp1133
F0.0
asg5
(lp1134
g7
(S'724.8040925906512738608314491'
p1135
tp1136
Rp1137
asg11
(lp1138
F0.0
asg13
(lp1139
F0.5
asg15
(lp1140
g17
(g21
S'\x01\x00\x00\x00\x00\x10\x8d@'
p1141
tp1142
Rp1143
asg27
(lp1144
g17
(g21
S'\x00\x00\x00\x00\x00\xb8\x85@'
p1145
tp1146
Rp1147
asg32
(lp1148
F1.1807258129119873
asg34
(lp1149
g17
(g21
S'\xf6\x99?\xbe"\x8f\x87@'
p1150
tp1151
Rp1152
asg39
(lp1153
g17
(g21
S'\t\x91V\xdd5fp@'
p1154
tp1155
Rp1156
asg44
(lp1157
F0.0
asg46
(lp1158
F0.5
asg48
(lp1159
g17
(g21
S'M\xfb\xa9\xf0<\x9f7@'
p1160
tp1161
Rp1162
asg53
(lp1163
F0.0
asg55
(lp1164
g17
(g21
S'\xd1\xad\xe0\x85\x99\xdaj@'
p1165
tp1166
Rp1167
asg60
(lp1168
g17
(g21
S'\x1eW\xcb2\xadW\x87@'
p1169
tp1170
Rp1171
asg65
(lp1172
g17
(g21
S'\x01\x00\x00\x00\x00\x10\x8d@'
p1173
tp1174
Rp1175
asg70
(lp1176
g17
(g21
S'\xcd\xcc\xcc\xcc\xcc\xd4\x85@'
p1177
tp1178
Rp1179
asg75
(lp1180
F0.0
asg77
(lp1181
g17
(g21
S'\xc3n\xaa\x97\x10\x16v@'
p1182
tp1183
Rp1184
asg82
(lp1185
g17
(g21
S'\x1d\x0e\xd6\xb6\xa5`i@'
p1186
tp1187
Rp1188
assS'log-2.cnf'
p1189
(dp1190
g3
(lp1191
F0.0
asg5
(lp1192
g7
(S'34.91236603505374120802572263'
p1193
tp1194
Rp1195
asg11
(lp1196
F0.0
asg13
(lp1197
F0.01
asg15
(lp1198
g17
(g21
S'K\x04\xbb\xea\xfd\x0f\x80@'
p1199
tp1200
Rp1201
asg27
(lp1202
g17
(g21
S'\x00\x00\x00\x00\x00\x00T@'
p1203
tp1204
Rp1205
asg32
(lp1206
F45.651495933532715
asg34
(lp1207
g17
(g21
S'&Q\r\x95\x84\x02U@'
p1208
tp1209
Rp1210
asg39
(lp1211
g17
(g21
S'=\xe4\x18n\xc9\x04\xff?'
p1212
tp1213
Rp1214
asg44
(lp1215
F0.0
asg46
(lp1216
F0.01
asg48
(lp1217
g17
(g21
S'\xb5\x96\xbb\x00\xb9R<@'
p1218
tp1219
Rp1220
asg53
(lp1221
F0.0
asg55
(lp1222
g17
(g21
S'h\x8ah\x86ul\xe8?'
p1223
tp1224
Rp1225
asg60
(lp1226
g17
(g21
S'\xf4\x16\x03\xfe\x8e\xa3Y@'
p1227
tp1228
Rp1229
asg65
(lp1230
g17
(g21
S'`Iq\x00\xedGy@'
p1231
tp1232
Rp1233
asg70
(lp1234
g17
(g21
S'\x00\x00\x00\x00\x00\x00R@'
p1235
tp1236
Rp1237
asg75
(lp1238
F0.0
asg77
(lp1239
g17
(g21
S'\xcf\xa9\xa1\xd7\xc2w\xf0?'
p1240
tp1241
Rp1242
asg82
(lp1243
g17
(g21
S'\xe2\x9f\xf2\xa5t\xb8\xde?'
p1244
tp1245
Rp1246
assI10
I10
F2.0
tp1247
.