((dp0
S'log-4.cnf'
p1
(dp2
S'barv_lower_bound'
p3
cnumpy.core.multiarray
scalar
p4
(cnumpy
dtype
p5
(S'f8'
p6
I0
I1
tp7
Rp8
(I3
S'<'
p9
NNNI-1
I-1
I0
tp10
bS'A\x86h\xe6\xc4\xa1\x83?'
p11
tp12
Rp13
sS'exact_log_Z'
p14
cdecimal
Decimal
p15
(S'65.32345235557495907353541722'
p16
tp17
Rp18
sS'barv_upper_bound'
p19
g4
(g8
S'0\xcb\x80\x1a\xf5P\x82@'
p20
tp21
Rp22
sS'gumbel_upper'
p23
F195.41115666902064
sS'barv_estimator'
p24
g4
(g8
S'\xf5\xf8\x8a\xde\x85\x9bO@'
p25
tp26
Rp27
ssS'sat-grid-pbl-0010.cnf'
p28
(dp29
g3
g4
(g8
S'me\x07\xaf\xa7\xce\xee?'
p30
tp31
Rp32
sg14
g15
(S'54.74110355310283121263143109'
p33
tp34
Rp35
sg19
g4
(g8
S'\xc9\t\x1f\x93\xc1\x0fS@'
p36
tp37
Rp38
sg23
F68.8650537466039
sg24
g4
(g8
S'!\xf1>\xcf\xb7[@@'
p39
tp40
Rp41
ssS'tire-1.cnf'
p42
(dp43
g3
g4
(g8
S"\xb2\x82\xf0\x00?'w?"
p44
tp45
Rp46
sg14
g15
(S'20.40366757860640219747606596'
p47
tp48
Rp49
sg19
g4
(g8
S'\xe4\xa5\x8af)\x81d@'
p50
tp51
Rp52
sg23
F40.14381327500601
sg24
g4
(g8
S'\xe1\x97\xe6\x9e!\xd87@'
p53
tp54
Rp55
ssS'log-1.cnf'
p56
(dp57
g3
g4
(g8
S'L\xa8\xe5\x18za\x8d?'
p58
tp59
Rp60
sg14
g15
(S'47.78185814456179880189729527'
p61
tp62
Rp63
sg19
g4
(g8
S'H\xf1\xa2\xe1J\xc3q@'
p64
tp65
Rp66
sg23
F113.14509933774768
sg24
g4
(g8
S'I<\xc46g\xc1:@'
p67
tp68
Rp69
ssS'tire-4.cnf'
p70
(dp71
g3
g4
(g8
S'w\xde\x1a\x02d\xc3G?'
p72
tp73
Rp74
sg14
g15
(S'32.26760906093560147581645240'
p75
tp76
Rp77
sg19
g4
(g8
S'm,O$\xf6\xbbq@'
p78
tp79
Rp80
sg23
F-38.80348829658192
sg24
g4
(g8
S'\x08\xda:\xdbp\xb4@@'
p81
tp82
Rp83
ssS'log-3.cnf'
p84
(dp85
g3
g4
(g8
S'|\x15\xf1\x12G\x95}?'
p86
tp87
Rp88
sg14
g15
(S'26.35754624642712697549596379'
p89
tp90
Rp91
sg19
g4
(g8
S'c\x9e3\x8b\xd4\xc0w@'
p92
tp93
Rp94
sg23
F24.097828038494587
sg24
g4
(g8
S'\xbf\x94.\xff\x9b\xbeA@'
p95
tp96
Rp97
ssS'tire-3.cnf'
p98
(dp99
g3
g4
(g8
S'\xc0\x1b@n\xf6\x8ax?'
p100
tp101
Rp102
sg14
g15
(S'26.12846440361733772531178430'
p103
tp104
Rp105
sg19
g4
(g8
S'\x8c(\x1f\x95[\xf5l@'
p106
tp107
Rp108
sg23
F10.038694303081039
sg24
g4
(g8
S'\xd3l\x96V\x19\xa3>@'
p109
tp110
Rp111
ssS'c1355.isc'
p112
(dp113
g3
g4
(g8
S'\x81\x0fvS\xab.\xe5?'
p114
tp115
Rp116
sg14
g15
(S'28.41903440295775768610651698'
p117
tp118
Rp119
sg19
g4
(g8
S'G\xcd\x8a\x10-\xacr@'
p120
tp121
Rp122
sg23
F112.00558695992997
sg24
g4
(g8
S'!\xf1>\xcf\xb7[P@'
p123
tp124
Rp125
ssS'sat-grid-pbl-0015.cnf'
p126
(dp127
g3
g4
(g8
S'\xdd\x12T\xb6\xba\x14\x05@'
p128
tp129
Rp130
sg14
g15
(S'125.4425195006362289639072410'
p131
tp132
Rp133
sg19
g4
(g8
S"'\x8c\xea\x19+\xcbd@"
p134
tp135
Rp136
sg23
F157.48403832763643
sg24
g4
(g8
S"\xcf\x885\xd1\xc7'Q@"
p137
tp138
Rp139
ssS'sat-grid-pbl-0025.cnf'
p140
(dp141
g3
g4
(g8
S'\xa1\xab\xa6\xa1\xf0\xea$@'
p142
tp143
Rp144
sg14
g15
(S'348.2810069124694245655975633'
p145
tp146
Rp147
sg19
g4
(g8
S'\xca\xd8\rD\xaa |@'
p148
tp149
Rp150
sg23
F428.41809943339797
sg24
g4
(g8
S'\xa0\xcc\xdd\xab\xe2\x96h@'
p151
tp152
Rp153
ssS'c499.isc'
p154
(dp155
g3
g4
(g8
S'\x97\xefkR\xf0\xb0\xe2?'
p156
tp157
Rp158
sg14
g15
(S'28.41903440295775768610651698'
p159
tp160
Rp161
sg19
g4
(g8
S'.\xdb\x13\xa1Ukc@'
p162
tp163
Rp164
sg23
F60.58652843712281
sg24
g4
(g8
S'\xe5\xc4\tk\x1d\xddD@'
p165
tp166
Rp167
ssS'c432.isc'
p168
(dp169
g3
g4
(g8
S'%\x94JpC\xf5\xd1?'
p170
tp171
Rp172
sg14
g15
(S'24.95329850015803113902035637'
p173
tp174
Rp175
sg19
g4
(g8
S'n\xceX\xdf;\x04_@'
p176
tp177
Rp178
sg23
F29.332113616312764
sg24
g4
(g8
S'\xfb\xc9\x94\x8e\x96\xc6>@'
p179
tp180
Rp181
ssS'c880.isc'
p182
(dp183
g3
g4
(g8
S'\xb9w\xbd\xf0\xcd\xe3\xdd?'
p184
tp185
Rp186
sg14
g15
(S'41.58883083359671856503392729'
p187
tp188
Rp189
sg19
g4
(g8
S'ba\x94\xe0U\x1am@'
p190
tp191
Rp192
sg23
F123.61583578169943
sg24
g4
(g8
S'\xfcR\xd1v}\xa5I@'
p193
tp194
Rp195
ssS'c1908.isc'
p196
(dp197
g3
g4
(g8
S'\x92\r\x90\xa9\xc9\xf2\xcd?'
p198
tp199
Rp200
sg14
g15
(S'22.87385695847819521076866001'
p201
tp202
Rp203
sg19
g4
(g8
S'\x06\xfc\x80\x97)\xdet@'
p204
tp205
Rp206
sg23
F81.4851090029892
sg24
g4
(g8
S'\xb7\xb1\xab~\xbd\xd5L@'
p207
tp208
Rp209
ssS'sat-grid-pbl-0020.cnf'
p210
(dp211
g3
g4
(g8
S'6Z\x01\xd1\xa9\xaa\x13@'
p212
tp213
Rp214
sg14
g15
(S'220.3660190724091582010586847'
p215
tp216
Rp217
sg19
g4
(g8
S'\xf9\x0e]rO\x19r@'
p218
tp219
Rp220
sg23
F275.6945389606275
sg24
g4
(g8
S'L\xe0\xaa\x1a|\xe7\\@'
p221
tp222
Rp223
ssS'rb.cnf'
p224
(dp225
g3
g4
(g8
S'\xf7E\xa5_\x01+4@'
p226
tp227
Rp228
sg14
g15
(S'855.9432668896412104221506170'
p229
tp230
Rp231
sg19
g4
(g8
S'\x84p\xc53\xa9\n\x93@'
p232
tp233
Rp234
sg23
F940.7954876375748
sg24
g4
(g8
S'\xa9\x7f9\xf6L\xaa{@'
p235
tp236
Rp237
ssS'c2670.isc'
p238
(dp239
g3
g4
(g8
S'\nw\x14\x88\xbf\xa9\x08@'
p240
tp241
Rp242
sg14
g15
(S'161.5032930704672570942150843'
p243
tp244
Rp245
sg19
g4
(g8
S'\x8a\x87\\\xb2\xdb\xb9\x84@'
p246
tp247
Rp248
sg23
F331.6455422313378
sg24
g4
(g8
S'7\xd6\x0c\xa2\x92\x9ad@'
p249
tp250
Rp251
ssS'ra.cnf'
p252
(dp253
g3
g4
(g8
S'\x8f\x0c\xfb~\x1f/4@'
p254
tp255
Rp256
sg14
g15
(S'659.1673732008658148371471422'
p257
tp258
Rp259
sg19
g4
(g8
S'\x0e\xb0u\xa3w\x93\x8a@'
p260
tp261
Rp262
sg23
F709.0249321786912
sg24
g4
(g8
S'lQ\xf5\xa6\xba\x98v@'
p263
tp264
Rp265
ssS'log-2.cnf'
p266
(dp267
g3
g4
(g8
S'o\xe6}\x96[\xae\x83?'
p268
tp269
Rp270
sg14
g15
(S'24.19940808387429746877865551'
p271
tp272
Rp273
sg19
g4
(g8
S'\x87\x19W\xfb\x84\xb5v@'
p274
tp275
Rp276
sg23
F78.61785807922136
sg24
g4
(g8
S'\x9d\x08:w/\xc6@@'
p277
tp278
Rp279
ssS'sat-grid-pbl-0030.cnf'
p280
(dp281
g3
g4
(g8
S'R\xffx\x01wd/@'
p282
tp283
Rp284
sg14
g15
(S'502.3959132375194767325914187'
p285
tp286
Rp287
sg19
g4
(g8
S'\x1a\xc6\xd8-\xc1\x16\x84@'
p288
tp289
Rp290
sg23
F538.5634105023476
sg24
g4
(g8
S'\x01\t1+`\x89q@'
p291
tp292
Rp293
ssS'tire-2.cnf'
p294
(dp295
g3
g4
(g8
S"\x9f\x82\xf0\x00?'w?"
p296
tp297
Rp298
sg14
g15
(S'27.32852267575170047911478367'
p299
tp300
Rp301
sg19
g4
(g8
S'\xf6\xc9\x06\xc1\x0e\xfdk@'
p302
tp303
Rp304
sg23
F50.2330840110481
sg24
g4
(g8
S'\xd9=\xa0\x06*\xce=@'
p305
tp306
Rp307
ssI1
I10
tp308
.