((dp0
S'log-4.cnf'
p1
(dp2
S'exact_log_Z'
p3
cdecimal
Decimal
p4
(S'65.32345235557495907353541722'
p5
tp6
Rp7
sS'barv_compute_time'
p8
F33.677133083343506
sS'barv_expectation_LB'
p9
cnumpy.core.multiarray
scalar
p10
(cnumpy
dtype
p11
(S'f8'
p12
I0
I1
tp13
Rp14
(I3
S'<'
p15
NNNI-1
I-1
I0
tp16
bS'\xf3fl\x9bxr\xf7?'
p17
tp18
Rp19
sS'gumbel_expectation_LB'
p20
F0.0
sS'barv_expectation_UB'
p21
g10
(g14
S'\\:\xa0061}@'
p22
tp23
Rp24
sS'barv_estimator'
p25
g10
(g14
S'eI\xa2\x80\xcd\xa1]@'
p26
tp27
Rp28
sS'gumbel_expectation_UB'
p29
F0.0
sS'barv_high_prob_UB'
p30
g10
(g14
S'DZY18\xce\x81@'
p31
tp32
Rp33
sS'gumbel_high_prob_UB'
p34
F0.0
sS'gumbel_high_prob_LB'
p35
F0.0
sS'barv_high_prob_LB'
p36
g10
(g14
S'\xea\xbd\x8e\x9aJ\x1e\xdc?'
p37
tp38
Rp39
ssS'sat-grid-pbl-0010.cnf'
p40
(dp41
g3
g4
(S'54.74110355310283121263143109'
p42
tp43
Rp44
sg8
F0.15593314170837402
sg9
g10
(g14
S'\xc07hF\x10\xcc\x19@'
p45
tp46
Rp47
sg20
F0.0
sg21
g10
(g14
S'h\xf3\x96\xe2@\x0fS@'
p48
tp49
Rp50
sg25
g10
(g14
S'\xc5S\xbf\xde\xde+K@'
p51
tp52
Rp53
sg29
F0.0
sg30
g10
(g14
S'\xc9\t\x1f\x93\xc1\x0fS@'
p54
tp55
Rp56
sg34
F0.0
sg35
F0.0
sg36
g10
(g14
S'W\x85l3"\xbd\x0f@'
p57
tp58
Rp59
ssS'tire-1.cnf'
p60
(dp61
g3
g4
(S'20.40366757860640219747606596'
p62
tp63
Rp64
sg8
F0.33611011505126953
sg9
g10
(g14
S'=b\xff\xd4\x9c\x98\xee?'
p65
tp66
Rp67
sg20
F0.0
sg21
g10
(g14
S'\x96\xe7\xd7D\x1e\xd0]@'
p68
tp69
Rp70
sg25
g10
(g14
S'\xe2 #\x87\x08\xb7B@'
p71
tp72
Rp73
sg29
F0.0
sg30
g10
(g14
S'\\\xc7\xc9\x8c\xaajb@'
p74
tp75
Rp76
sg34
F0.0
sg35
F0.0
sg36
g10
(g14
S'\xa3\x85-\x83\x83\xad\xc7?'
p77
tp78
Rp79
ssS'log-1.cnf'
p80
(dp81
g3
g4
(S'47.78185814456179880189729527'
p82
tp83
Rp84
sg8
F0.5513780117034912
sg9
g10
(g14
S'\xd7:O\x86+$\xf4?'
p85
tp86
Rp87
sg20
F0.0
sg21
g10
(g14
S'\xba6;C\xe9-o@'
p88
tp89
Rp90
sg25
g10
(g14
S'\x01\t1+`\x89Q@'
p91
tp92
Rp93
sg29
F0.0
sg30
g10
(g14
S'\xf7\x85\xe0\xcfn\x13s@'
p94
tp95
Rp96
sg34
F0.0
sg35
F0.0
sg36
g10
(g14
S'Z5\xbf\x07\xe8\x1a\xd5?'
p97
tp98
Rp99
ssS'tire-4.cnf'
p100
(dp101
g3
g4
(S'32.26760906093560147581645240'
p102
tp103
Rp104
sg8
F0.5621960163116455
sg9
g10
(g14
S'\xb3B\xc8\xbe\xb2?\xeb?'
p105
tp106
Rp107
sg20
F0.0
sg21
g10
(g14
S'\x8ej\x9d\xeaU\xb3h@'
p108
tp109
Rp110
sg25
g10
(g14
S'\xdej\xc3\xd2%\xd3J@'
p111
tp112
Rp113
sg29
F0.0
sg30
g10
(g14
S'd\x81\xe2\x8b\x19wo@'
p114
tp115
Rp116
sg34
F0.0
sg35
F0.0
sg36
g10
(g14
S'>\x1c\xb9\xber\x01\xc2?'
p117
tp118
Rp119
ssS'log-3.cnf'
p120
(dp121
g3
g4
(S'26.35754624642712697549596379'
p122
tp123
Rp124
sg8
F40.057384967803955
sg9
g10
(g14
S'\r\xd80\xd7\\\xae\xd5?'
p125
tp126
Rp127
sg20
F0.0
sg21
g10
(g14
S'\xaf\xba\x9f\xff\xb2\xc4h@'
p128
tp129
Rp130
sg25
g10
(g14
S'\x19\x97\xf86\xc0QF@'
p131
tp132
Rp133
sg29
F0.0
sg30
g10
(g14
S'\x92;\xbc\xe45\x19r@'
p134
tp135
Rp136
sg34
F0.0
sg35
F0.0
sg36
g10
(g14
S'\x95\xf42 \xc2JS?'
p137
tp138
Rp139
ssS'tire-3.cnf'
p140
(dp141
g3
g4
(S'26.12846440361733772531178430'
p142
tp143
Rp144
sg8
F0.36675500869750977
sg9
g10
(g14
S'H\x1a5I\x92\x01\xdd?'
p145
tp146
Rp147
sg20
F0.0
sg21
g10
(g14
S'm\xa4\xa5\x7fr\x9c_@'
p148
tp149
Rp150
sg25
g10
(g14
S'JN=\x075\x7f@@'
p151
tp152
Rp153
sg29
F0.0
sg30
g10
(g14
S'\xf3@\xc2\xc4\x9b\xb9e@'
p154
tp155
Rp156
sg34
F0.0
sg35
F0.0
sg36
g10
(g14
S"2'\x93\x10u \x90?"
p157
tp158
Rp159
ssS'c1355.isc'
p160
(dp161
g3
g4
(S'28.41903440295775768610651698'
p162
tp163
Rp164
sg8
F9.354698181152344
sg9
g10
(g14
S'&\r!\x92m\xd9\x05@'
p165
tp166
Rp167
sg20
F0.0
sg21
g10
(g14
S'\xbed\xabs3|l@'
p168
tp169
Rp170
sg25
g10
(g14
S'x\xa1\x15\x95\xd1\xdbS@'
p171
tp172
Rp173
sg29
F0.0
sg30
g10
(g14
S'g\xb8\x8d\xcd\xb3#p@'
p174
tp175
Rp176
sg34
F0.0
sg35
F0.0
sg36
g10
(g14
S'\xf3\xad:\x15m\x88\xf3?'
p177
tp178
Rp179
ssS'sat-grid-pbl-0015.cnf'
p180
(dp181
g3
g4
(S'125.4425195006362289639072410'
p182
tp183
Rp184
sg8
F0.18561601638793945
sg9
g10
(g14
S'\x9d<\x82\x92\xc5g+@'
p185
tp186
Rp187
sg20
F0.0
sg21
g10
(g14
S'\x8fpN\xac\xf9\xc8d@'
p188
tp189
Rp190
sg25
g10
(g14
S'4\xc9\xa6&5@]@'
p191
tp192
Rp193
sg29
F0.0
sg30
g10
(g14
S'P\x96\n\xcf^\xcbd@'
p194
tp195
Rp196
sg34
F0.0
sg35
F0.0
sg36
g10
(g14
S'\x1b\xf2\xea#3\xe5#@'
p197
tp198
Rp199
ssS'sat-grid-pbl-0025.cnf'
p200
(dp201
g3
g4
(S'348.2810069124694245655975633'
p202
tp203
Rp204
sg8
F1.5473270416259766
sg9
g10
(g14
S'\xd1\xa4\xf4-\x10\xd5D@'
p205
tp206
Rp207
sg20
F0.0
sg21
g10
(g14
S'\x8c\xab\xb3\r\xbb(|@'
p208
tp209
Rp210
sg25
g10
(g14
S'iV\x08\xfc*\xfct@'
p211
tp212
Rp213
sg29
F0.0
sg30
g10
(g14
S'\x8c\xab\xb3\r\xbb(|@'
p214
tp215
Rp216
sg34
F0.0
sg35
F0.0
sg36
g10
(g14
S'_y\x8a\xb2crA@'
p217
tp218
Rp219
ssS'c499.isc'
p220
(dp221
g3
g4
(S'28.41903440295775768610651698'
p222
tp223
Rp224
sg8
F3.77308988571167
sg9
g10
(g14
S'\x92\xd5\x98F\x8d(\r@'
p225
tp226
Rp227
sg20
F0.0
sg21
g10
(g14
S'C\xa1C\xfd\xa6\x13a@'
p228
tp229
Rp230
sg25
g10
(g14
S'\x7f\xb2\x99\xe6\x1e\\N@'
p231
tp232
Rp233
sg29
F0.0
sg30
g10
(g14
S'\xf4\xb8\t<7\x8bb@'
p234
tp235
Rp236
sg34
F0.0
sg35
F0.0
sg36
g10
(g14
S'9\xa30\xea\xb7\xa7\xfd?'
p237
tp238
Rp239
ssS'c432.isc'
p240
(dp241
g3
g4
(S'24.95329850015803113902035637'
p242
tp243
Rp244
sg8
F0.41556406021118164
sg9
g10
(g14
S'\x91Y\x92A\xfe\xe9\xff?'
p245
tp246
Rp247
sg20
F0.0
sg21
g10
(g14
S'\x17\x07\xf2\xe5\xf9\xe8X@'
p248
tp249
Rp250
sg25
g10
(g14
S'\x16\xf3\x11S\xab+D@'
p251
tp252
Rp253
sg29
F0.0
sg30
g10
(g14
S'p\x94\x80\xc4z#\\@'
p254
tp255
Rp256
sg34
F0.0
sg35
F0.0
sg36
g10
(g14
S'\xc3+\x9d\x04\xa7\xeb\xe7?'
p257
tp258
Rp259
ssS'c880.isc'
p260
(dp261
g3
g4
(S'41.58883083359671856503392729'
p262
tp263
Rp264
sg8
F8.225908994674683
sg9
g10
(g14
S'\xe9p\x98\x93\xc6\xd4\x0e@'
p265
tp266
Rp267
sg20
F0.0
sg21
g10
(g14
S'H}-\x98b\xcdi@'
p268
tp269
Rp270
sg25
g10
(g14
S'h\xad\x0e\xc3\xa5rT@'
p271
tp272
Rp273
sg29
F0.0
sg30
g10
(g14
S'\x86\x02dX-]l@'
p274
tp275
Rp276
sg34
F0.0
sg35
F0.0
sg36
g10
(g14
S'L\xb3\x03\xd4\xf0\x06\x00@'
p277
tp278
Rp279
ssS'c1908.isc'
p280
(dp281
g3
g4
(S'22.87385695847819521076866001'
p282
tp283
Rp284
sg8
F17.301586151123047
sg9
g10
(g14
S'fR\xc2{\xb2L\x02@'
p285
tp286
Rp287
sg20
F0.0
sg21
g10
(g14
S'"\xa3\x11\xdd\xad\x84p@'
p288
tp289
Rp290
sg25
g10
(g14
S'8\x7f\x06\xdb\x17$U@'
p291
tp292
Rp293
sg29
F0.0
sg30
g10
(g14
S'\xb7\xe2\xe3\xa2\xeb\x14s@'
p294
tp295
Rp296
sg34
F0.0
sg35
F0.0
sg36
g10
(g14
S'\x83\xd5`\x83\xff\xc7\xed?'
p297
tp298
Rp299
ssS'sat-grid-pbl-0020.cnf'
p300
(dp301
g3
g4
(S'220.3660190724091582010586847'
p302
tp303
Rp304
sg8
F0.4606308937072754
sg9
g10
(g14
S'\x1b#\xf6\xf1\x8fv9@'
p305
tp306
Rp307
sg20
F0.0
sg21
g10
(g14
S'\x86C)\xf5\xf21r@'
p308
tp309
Rp310
sg25
g10
(g14
S'\x16\xbc\xc8\xdc\xce_j@'
p311
tp312
Rp313
sg29
F0.0
sg30
g10
(g14
S'\x86C)\xf5\xf21r@'
p314
tp315
Rp316
sg34
F0.0
sg35
F0.0
sg36
g10
(g14
S'\xbe\x1d\x97\xa8C<4@'
p317
tp318
Rp319
ssS'rb.cnf'
p320
(dp321
g3
g4
(S'855.9432668896412104221506170'
p322
tp323
Rp324
sg8
F1.3307929039001465
sg9
g10
(g14
S'\xf2>z\xa3\xb5\x8bW@'
p325
tp326
Rp327
sg20
F0.0
sg21
g10
(g14
S'\xe5\x80 9s\xfc\x93@'
p328
tp329
Rp330
sg25
g10
(g14
S'\x97\x90Ey\x91\xa4\x8a@'
p331
tp332
Rp333
sg29
F0.0
sg30
g10
(g14
S'\xb0\xec3\xb9\x18\r\x94@'
p334
tp335
Rp336
sg34
F0.0
sg35
F0.0
sg36
g10
(g14
S'(X#v\x85\xf6T@'
p337
tp338
Rp339
ssS'c2670.isc'
p340
(dp341
g3
g4
(S'161.5032930704672570942150843'
p342
tp343
Rp344
sg8
F18.57971501350403
sg9
g10
(g14
S'\xd4.\x1c\xe5}\xc2+@'
p345
tp346
Rp347
sg20
F0.0
sg21
g10
(g14
S'7\xf0\xa1\xf5\xce\x17\x84@'
p348
tp349
Rp350
sg25
g10
(g14
S'\xeb\\\xbb\xb9Y\xa9p@'
p351
tp352
Rp353
sg29
F0.0
sg30
g10
(g14
S'\xce\x9a\x19\x1c9!\x85@'
p354
tp355
Rp356
sg34
F0.0
sg35
F0.0
sg36
g10
(g14
S'[`[\x1f\x8a2$@'
p357
tp358
Rp359
ssS'ra.cnf'
p360
(dp361
g3
g4
(S'659.1673732008658148371471422'
p362
tp363
Rp364
sg8
F1.9521870613098145
sg9
g10
(g14
S"Y\xf4\x07Ph'S@"
p365
tp366
Rp367
sg20
F0.0
sg21
g10
(g14
S'\xed\x07\xc4\xdd\xd6\xc5\x8a@'
p368
tp369
Rp370
sg25
g10
(g14
S'Xq\xd8\\\xd2\x9e\x83@'
p371
tp372
Rp373
sg29
F0.0
sg30
g10
(g14
S'\xed\x07\xc4\xdd\xd6\xc5\x8a@'
p374
tp375
Rp376
sg34
F0.0
sg35
F0.0
sg36
g10
(g14
S'\xb3\x19\t\xe8\xf1\xd4P@'
p377
tp378
Rp379
ssS'log-2.cnf'
p380
(dp381
g3
g4
(S'24.19940808387429746877865551'
p382
tp383
Rp384
sg8
F40.706997871398926
sg9
g10
(g14
S'\xe1\x87\xb6B\xf5\x10\xd8?'
p385
tp386
Rp387
sg20
F0.0
sg21
g10
(g14
S'\xbaaH\xb2g\xebh@'
p388
tp389
Rp390
sg25
g10
(g14
S'\xbe\x0b\xf2\x16\xb5\xdfF@'
p391
tp392
Rp393
sg29
F0.0
sg30
g10
(g14
S'\x03\xb9\xe7\xd5v\xe4q@'
p394
tp395
Rp396
sg34
F0.0
sg35
F0.0
sg36
g10
(g14
S'\x9d\x1e*N\xe2\x91q?'
p397
tp398
Rp399
ssS'sat-grid-pbl-0030.cnf'
p400
(dp401
g3
g4
(S'502.3959132375194767325914187'
p402
tp403
Rp404
sg8
F1.2473671436309814
sg9
g10
(g14
S'\xa7\xaf\x1d\\\x04hM@'
p405
tp406
Rp407
sg20
F0.0
sg21
g10
(g14
S'\x9eA\x92\xd8\x03%\x84@'
p408
tp409
Rp410
sg25
g10
(g14
S'~\t\xa0\xad\x99\xd2}@'
p411
tp412
Rp413
sg29
F0.0
sg30
g10
(g14
S'\x9eA\x92\xd8\x03%\x84@'
p414
tp415
Rp416
sg34
F0.0
sg35
F0.0
sg36
g10
(g14
S'\xcb\xdd+\xfe\x19[I@'
p417
tp418
Rp419
ssS'tire-2.cnf'
p420
(dp421
g3
g4
(S'27.32852267575170047911478367'
p422
tp423
Rp424
sg8
F0.29514002799987793
sg9
g10
(g14
S'\xf3\x99\xb4\xd4\x0eV\xe8?'
p425
tp426
Rp427
sg20
F0.0
sg21
g10
(g14
S'\xc1\xdcP\xf8\xa7vb@'
p428
tp429
Rp430
sg25
g10
(g14
S'\xe5\xc4\tk\x1d\xddD@'
p431
tp432
Rp433
sg29
F0.0
sg30
g10
(g14
S'<(oT\xf9\xa9g@'
p434
tp435
Rp436
sg34
F0.0
sg35
F0.0
sg36
g10
(g14
S'u\x03\xbfJr\xee\xba?'
p437
tp438
Rp439
ssI10
I10
tp440
.