((dp0
S'log-4.cnf'
p1
(dp2
S'gumb_compute_time'
p3
(lp4
F0.0
aF0.0
aF0.0
aF0.0
aF0.0
aF0.0
aF0.0
aF0.0
aF0.0
aF0.0
asS'exact_log_Z'
p5
(lp6
cdecimal
Decimal
p7
(S'94.24182076713446859011815549'
p8
tp9
Rp10
ag7
(S'94.24182076713446859011815549'
p11
tp12
Rp13
ag7
(S'94.24182076713446859011815549'
p14
tp15
Rp16
ag7
(S'94.24182076713446859011815549'
p17
tp18
Rp19
ag7
(S'94.24182076713446859011815549'
p20
tp21
Rp22
ag7
(S'94.24182076713446859011815549'
p23
tp24
Rp25
ag7
(S'94.24182076713446859011815549'
p26
tp27
Rp28
ag7
(S'94.24182076713446859011815549'
p29
tp30
Rp31
ag7
(S'94.24182076713446859011815549'
p32
tp33
Rp34
ag7
(S'94.24182076713446859011815549'
p35
tp36
Rp37
asS'gumbel_expectation_UB'
p38
(lp39
F0.0
aF0.0
aF0.0
aF0.0
aF0.0
aF0.0
aF0.0
aF0.0
aF0.0
aF0.0
asS'massart_gumbelPerturb_LB_lambda'
p40
(lp41
F0.1
aF0.01
aF0.1
aF0.1
aF0.1
aF0.01
aF0.1
aF0.1
aF0.1
aF0.1
asS'barv_high_prob_UB'
p42
(lp43
cnumpy.core.multiarray
scalar
p44
(cnumpy
dtype
p45
(S'f8'
p46
I0
I1
tp47
Rp48
(I3
S'<'
p49
NNNI-1
I-1
I0
tp50
bS'p^\xb6\x9c\xfb\xf0\x8f@'
p51
tp52
Rp53
ag44
(g48
S'\xe9\xeb\xc9\xa6g\xeb\x8e@'
p54
tp55
Rp56
ag44
(g48
S'\xeb\x87\xf4\x12\xbe6\x8f@'
p57
tp58
Rp59
ag44
(g48
S'[\xf7\xdd\x99sE\x8c@'
p60
tp61
Rp62
ag44
(g48
S'\xac`\xa3.\xf8{\x8d@'
p63
tp64
Rp65
ag44
(g48
S'\xba\xb4\xf1>\xd3\xdf\x8d@'
p66
tp67
Rp68
ag44
(g48
S'[\xf7\xdd\x99sE\x8c@'
p69
tp70
Rp71
ag44
(g48
S'|g(wi\xfb\x8d@'
p72
tp73
Rp74
ag44
(g48
S'\xdf\xfa\xfe\x0e)\x96\x8a@'
p75
tp76
Rp77
ag44
(g48
S'\x96\xb2\xc8(n\x1c\x8e@'
p78
tp79
Rp80
asS'barv_compute_time'
p81
(lp82
F35.398163080215454
aF33.4123637676239
aF36.93610692024231
aF33.2893750667572
aF40.264036893844604
aF38.885688066482544
aF32.25745701789856
aF33.042158126831055
aF38.96557283401489
aF43.16030812263489
asS'delta_k_gumbel_perturb'
p83
(lp84
g44
(g48
S'\xd8\xec{\xc8\xa5Hh@'
p85
tp86
Rp87
ag44
(g48
S'\r\xce\xda\xad\xf7\x1df@'
p88
tp89
Rp90
ag44
(g48
S'B`(k\xb0\xa8k@'
p91
tp92
Rp93
ag44
(g48
S'F\xa9g\xf8\x9aAj@'
p94
tp95
Rp96
ag44
(g48
S'r3\x1d.n%k@'
p97
tp98
Rp99
ag44
(g48
S'\xf1\x06=\xffzef@'
p100
tp101
Rp102
ag44
(g48
S'\xf6\xbcB7\xcb\xb3i@'
p103
tp104
Rp105
ag44
(g48
S'\xcd\x9f\xa6\xe2\x03\xf4i@'
p106
tp107
Rp108
ag44
(g48
S'\x95\xf5\xfe\x95L\xb6i@'
p109
tp110
Rp111
ag44
(g48
S'\x9bR\xe2,c*j@'
p112
tp113
Rp114
asS'barv_expectation_LB'
p115
(lp116
g44
(g48
S'\x90l\x89\xf3\x14\xa8\x1a@'
p117
tp118
Rp119
ag44
(g48
S'k\xff\xdb6\x02\xc2\x17@'
p120
tp121
Rp122
ag44
(g48
S'E`\xb4\x0f\xac\x91\x18@'
p123
tp124
Rp125
ag44
(g48
S'\xd1X\x1f\x1a\xebC\x11@'
p126
tp127
Rp128
ag44
(g48
S'\xce:\x11\x9bs\x10\x14@'
p129
tp130
Rp131
ag44
(g48
S'\x10u\x98p\xa3\x06\x15@'
p132
tp133
Rp134
ag44
(g48
S'\xd1X\x1f\x1a\xebC\x11@'
p135
tp136
Rp137
ag44
(g48
S'@\xc2\xe8\xdc\x0bL\x15@'
p138
tp139
Rp140
ag44
(g48
S'\xb2M\x92\xc8}\xa9\x0b@'
p141
tp142
Rp143
ag44
(g48
S'\xdf\x89\xf78\xec\x9f\x15@'
p144
tp145
Rp146
asS'gumbel_expectation_LB'
p147
(lp148
F0.0
aF0.0
aF0.0
aF0.0
aF0.0
aF0.0
aF0.0
aF0.0
aF0.0
aF0.0
asS'massart_gumbelPerturb_LB_lambda_expectation_est'
p149
(lp150
F0.1
aF0.1
aF0.1
aF0.1
aF0.1
aF0.1
aF0.1
aF0.1
aF0.1
aF0.1
asS'epsilon_g'
p151
(lp152
g44
(g48
S'M\xda\x8c\xca\x16\x96B@'
p153
tp154
Rp155
ag44
(g48
S'M\xda\x8c\xca\x16\x96B@'
p156
tp157
Rp158
ag44
(g48
S'M\xda\x8c\xca\x16\x96B@'
p159
tp160
Rp161
ag44
(g48
S'M\xda\x8c\xca\x16\x96B@'
p162
tp163
Rp164
ag44
(g48
S'M\xda\x8c\xca\x16\x96B@'
p165
tp166
Rp167
ag44
(g48
S'M\xda\x8c\xca\x16\x96B@'
p168
tp169
Rp170
ag44
(g48
S'M\xda\x8c\xca\x16\x96B@'
p171
tp172
Rp173
ag44
(g48
S'M\xda\x8c\xca\x16\x96B@'
p174
tp175
Rp176
ag44
(g48
S'M\xda\x8c\xca\x16\x96B@'
p177
tp178
Rp179
ag44
(g48
S'M\xda\x8c\xca\x16\x96B@'
p180
tp181
Rp182
asS'gumbel_high_prob_UB'
p183
(lp184
F0.0
aF0.0
aF0.0
aF0.0
aF0.0
aF0.0
aF0.0
aF0.0
aF0.0
aF0.0
asS'massart_gumbelPerturb_LB_expectation_est'
p185
(lp186
F5.83251407546388
aF4.099138782238779
aF8.532643902659814
aF7.410507083164035
aF8.122460327809137
aF4.322616784008826
aF6.96734601786067
aF7.168037784131311
aF6.975175242220132
aF7.337950991814736
asS'barv_expectation_UB'
p187
(lp188
g44
(g48
S'\xbb]\xab\xbb\x19\xf0\x8b@'
p189
tp190
Rp191
ag44
(g48
S'r3\xbcn2\xd2\x8a@'
p192
tp193
Rp194
ag44
(g48
S'y\n\xea\x8e\x9a$\x8b@'
p195
tp196
Rp197
ag44
(g48
S'\xa0\xd6\x15\x83\x0c\xea\x87@'
p198
tp199
Rp200
ag44
(g48
S'\x1e\xd9\x80m~?\x89@'
p201
tp202
Rp203
ag44
(g48
S'\xbf/\xed\xc1\x11\xad\x89@'
p204
tp205
Rp206
ag44
(g48
S'\xa0\xd6\x15\x83\x0c\xea\x87@'
p207
tp208
Rp209
ag44
(g48
S'V"\xb9\xb5R\xcb\x89@'
p210
tp211
Rp212
ag44
(g48
S'p\r\xea\xe0\xd6\r\x86@'
p213
tp214
Rp215
ag44
(g48
S'\xb2\xb6\xe0\xf0\x85\xef\x89@'
p216
tp217
Rp218
asS'barv_estimator'
p219
(lp220
g44
(g48
S'fffff\xe6e@'
p221
tp222
Rp223
ag44
(g48
S'\xcd\xcc\xcc\xcc\xcc\xacd@'
p224
tp225
Rp226
ag44
(g48
S'fffff\x06e@'
p227
tp228
Rp229
ag44
(g48
S'\x00\x00\x00\x00\x00\xa0a@'
p230
tp231
Rp232
ag44
(g48
S'\x00\x00\x00\x00\x00\x00c@'
p233
tp234
Rp235
ag44
(g48
S'33333sc@'
p236
tp237
Rp238
ag44
(g48
S'\x00\x00\x00\x00\x00\xa0a@'
p239
tp240
Rp241
ag44
(g48
S'33333\x93c@'
p242
tp243
Rp244
ag44
(g48
S'\xcd\xcc\xcc\xcc\xcc\x8c_@'
p245
tp246
Rp247
ag44
(g48
S'\x9a\x99\x99\x99\x99\xb9c@'
p248
tp249
Rp250
asS'gumbel_high_prob_LB'
p251
(lp252
F0.0
aF0.0
aF0.0
aF0.0
aF0.0
aF0.0
aF0.0
aF0.0
aF0.0
aF0.0
asS'barv_high_prob_LB'
p253
(lp254
g44
(g48
S'@`\xdfU\x85\x8b\x10@'
p255
tp256
Rp257
ag44
(g48
S'>\xf7\x1d\xad\xd9\x8e\x0c@'
p258
tp259
Rp260
ag44
(g48
S'\xf1jP`\x9e\xd1\r@'
p261
tp262
Rp263
ag44
(g48
S'\x01\x9b\x83f@\xb9\x02@'
p264
tp265
Rp266
ag44
(g48
S'8\x9aR\xee\xb1\xe6\x06@'
p267
tp268
Rp269
ag44
(g48
S'\x94\xf3P\x9b\x10\\\x08@'
p270
tp271
Rp272
ag44
(g48
S'\x01\x9b\x83f@\xb9\x02@'
p273
tp274
Rp275
ag44
(g48
S'\x86M{\xf4\xd2\xc5\x08@'
p276
tp277
Rp278
ag44
(g48
S'\x8a\x14\xc1\xe5I\x88\xfb?'
p279
tp280
Rp281
ag44
(g48
S'\r)>\xad\xe8E\t@'
p282
tp283
Rp284
asS'massart_gumbelPerturb_LB'
p285
(lp286
g44
(g48
S'L\r\xa8\xdf\x0b\xec\x00@'
p287
tp288
Rp289
ag44
(g48
S'x\n\x14\xc6`<\xf4?'
p290
tp291
Rp292
ag44
(g48
S'\x90\x11/\xc5\xf4B\x13@'
p293
tp294
Rp295
ag44
(g48
S'\xa0)\xf3\xab\xc6\x8b\r@'
p296
tp297
Rp298
ag44
(g48
S'`\xb5q\x9b\xed\x9e\x11@'
p299
tp300
Rp301
ag44
(g48
S'\xc6g\x02$\xea\x97\xf4?'
p302
tp303
Rp304
ag44
(g48
S'pt\xa0\xa4.\x00\n@'
p305
tp306
Rp307
ag44
(g48
S'@ \x86\xed2\x9b\x0b@'
p308
tp309
Rp310
ag44
(g48
S'\x00\x12Ui7\x10\n@'
p311
tp312
Rp313
ag44
(g48
S'`e7b.\xf7\x0c@'
p314
tp315
Rp316
assS'sat-grid-pbl-0010.cnf'
p317
(dp318
g3
(lp319
F0.0
aF9.5367431640625e-07
aF0.0
aF0.0
aF9.5367431640625e-07
aF0.0
aF9.5367431640625e-07
aF9.5367431640625e-07
aF0.0
aF9.5367431640625e-07
asg5
(lp320
g7
(S'78.97471862885066913762932347'
p321
tp322
Rp323
ag7
(S'78.97471862885066913762932347'
p324
tp325
Rp326
ag7
(S'78.97471862885066913762932347'
p327
tp328
Rp329
ag7
(S'78.97471862885066913762932347'
p330
tp331
Rp332
ag7
(S'78.97471862885066913762932347'
p333
tp334
Rp335
ag7
(S'78.97471862885066913762932347'
p336
tp337
Rp338
ag7
(S'78.97471862885066913762932347'
p339
tp340
Rp341
ag7
(S'78.97471862885066913762932347'
p342
tp343
Rp344
ag7
(S'78.97471862885066913762932347'
p345
tp346
Rp347
ag7
(S'78.97471862885066913762932347'
p348
tp349
Rp350
asg38
(lp351
F0.0
aF0.0
aF0.0
aF0.0
aF0.0
aF0.0
aF0.0
aF0.0
aF0.0
aF0.0
asg40
(lp352
F0.5
aF0.5
aF0.5
aF0.5
aF0.5
aF0.5
aF0.5
aF0.5
aF0.5
aF0.5
asg42
(lp353
g44
(g48
S'\xff\xff\xff\xff\xff\x7f[@'
p354
tp355
Rp356
ag44
(g48
S'\xff\xff\xff\xff\xff\x7f[@'
p357
tp358
Rp359
ag44
(g48
S'\xff\xff\xff\xff\xff\x7f[@'
p360
tp361
Rp362
ag44
(g48
S'\xff\xff\xff\xff\xff\x7f[@'
p363
tp364
Rp365
ag44
(g48
S'\xff\xff\xff\xff\xff\x7f[@'
p366
tp367
Rp368
ag44
(g48
S'\xff\xff\xff\xff\xff\x7f[@'
p369
tp370
Rp371
ag44
(g48
S'\xff\xff\xff\xff\xff\x7f[@'
p372
tp373
Rp374
ag44
(g48
S'\xff\xff\xff\xff\xff\x7f[@'
p375
tp376
Rp377
ag44
(g48
S'\xff\xff\xff\xff\xff\x7f[@'
p378
tp379
Rp380
ag44
(g48
S'\xff\xff\xff\xff\xff\x7f[@'
p381
tp382
Rp383
asg81
(lp384
F0.08670592308044434
aF0.08869194984436035
aF0.08633685111999512
aF0.08693385124206543
aF0.11977815628051758
aF0.15750598907470703
aF0.11671781539916992
aF0.13295412063598633
aF0.16018390655517578
aF0.12479209899902344
asg83
(lp385
g44
(g48
S'H\x02\x0fH\xbd\xb7T@'
p386
tp387
Rp388
ag44
(g48
S'\xe9\xb0h\xf4~\xcfT@'
p389
tp390
Rp391
ag44
(g48
S'\xcd\xc3&\x81`\x01V@'
p392
tp393
Rp394
ag44
(g48
S'&\xd7?!o\x03T@'
p395
tp396
Rp397
ag44
(g48
S'j;\xdf\xf8\x05.U@'
p398
tp399
Rp400
ag44
(g48
S'"\x7f\xe6\x0c@vS@'
p401
tp402
Rp403
ag44
(g48
S'\xe1\xbd\xc1\x93\x86\x02T@'
p404
tp405
Rp406
ag44
(g48
S'\xdf\xf0+\x98H\x93T@'
p407
tp408
Rp409
ag44
(g48
S'\x0bF\xf48F+S@'
p410
tp411
Rp412
ag44
(g48
S'\x11D\xed\\\x14\x92S@'
p413
tp414
Rp415
asg115
(lp416
g44
(g48
S'\x1e\xe6T\xc8\xb4\xab:@'
p417
tp418
Rp419
ag44
(g48
S'\x81\xf6\xac\x01i\xb49@'
p420
tp421
Rp422
ag44
(g48
S'\x1e\xe6T\xc8\xb4\xab:@'
p423
tp424
Rp425
ag44
(g48
S'\x9e\x12\xe4)A^<@'
p426
tp427
Rp428
ag44
(g48
S'33333\xf3:@'
p429
tp430
Rp431
ag44
(g48
S']\xf0+l%)9@'
p432
tp433
Rp434
ag44
(g48
S']\xf0+l%)9@'
p435
tp436
Rp437
ag44
(g48
S'\xd1E\x17]t\x919@'
p438
tp439
Rp440
ag44
(g48
S'\xbd.\x1bR\x19\x88:@'
p441
tp442
Rp443
ag44
(g48
S'A\x9e\x12\xe4)A:@'
p444
tp445
Rp446
asg147
(lp447
F0.0
aF0.0
aF0.0
aF0.0
aF0.0
aF0.0
aF0.0
aF0.0
aF0.0
aF0.0
asg149
(lp448
F0.5
aF0.5
aF0.5
aF0.5
aF0.5
aF0.5
aF0.5
aF0.5
aF0.5
aF0.5
asg151
(lp449
g44
(g48
S'\x0c\xb86\xf6\x81? @'
p450
tp451
Rp452
ag44
(g48
S'\x0c\xb86\xf6\x81? @'
p453
tp454
Rp455
ag44
(g48
S'\x0c\xb86\xf6\x81? @'
p456
tp457
Rp458
ag44
(g48
S'\x0c\xb86\xf6\x81? @'
p459
tp460
Rp461
ag44
(g48
S'\x0c\xb86\xf6\x81? @'
p462
tp463
Rp464
ag44
(g48
S'\x0c\xb86\xf6\x81? @'
p465
tp466
Rp467
ag44
(g48
S'\x0c\xb86\xf6\x81? @'
p468
tp469
Rp470
ag44
(g48
S'\x0c\xb86\xf6\x81? @'
p471
tp472
Rp473
ag44
(g48
S'\x0c\xb86\xf6\x81? @'
p474
tp475
Rp476
ag44
(g48
S'\x0c\xb86\xf6\x81? @'
p477
tp478
Rp479
asg183
(lp480
F0.0
aF0.0
aF0.0
aF0.0
aF0.0
aF0.0
aF0.0
aF0.0
aF0.0
aF0.0
asg185
(lp481
F22.2606020002034
aF22.44619993854083
aF24.835895671429498
aF20.8519670026863
aF23.18469534362483
aF19.74896775072468
aF20.844870057332187
aF21.975790993778446
aF19.163218607817583
aF19.966384517182533
asg187
(lp482
g44
(g48
S'\xff\xff\xff\xff\xff\x7f[@'
p483
tp484
Rp485
ag44
(g48
S'\xff\xff\xff\xff\xff\x7f[@'
p486
tp487
Rp488
ag44
(g48
S'\xff\xff\xff\xff\xff\x7f[@'
p489
tp490
Rp491
ag44
(g48
S'\xff\xff\xff\xff\xff\x7f[@'
p492
tp493
Rp494
ag44
(g48
S'\xff\xff\xff\xff\xff\x7f[@'
p495
tp496
Rp497
ag44
(g48
S'\xff\xff\xff\xff\xff\x7f[@'
p498
tp499
Rp500
ag44
(g48
S'\xff\xff\xff\xff\xff\x7f[@'
p501
tp502
Rp503
ag44
(g48
S'\xff\xff\xff\xff\xff\x7f[@'
p504
tp505
Rp506
ag44
(g48
S'\xff\xff\xff\xff\xff\x7f[@'
p507
tp508
Rp509
ag44
(g48
S'\xff\xff\xff\xff\xff\x7f[@'
p510
tp511
Rp512
asg219
(lp513
g44
(g48
S'fffff&S@'
p514
tp515
Rp516
ag44
(g48
S'\xcd\xcc\xcc\xcc\xcc\xccR@'
p517
tp518
Rp519
ag44
(g48
S'fffff&S@'
p520
tp521
Rp522
ag44
(g48
S'\x00\x00\x00\x00\x00\xc0S@'
p523
tp524
Rp525
ag44
(g48
S'\x00\x00\x00\x00\x00@S@'
p526
tp527
Rp528
ag44
(g48
S'\x9a\x99\x99\x99\x99\x99R@'
p529
tp530
Rp531
ag44
(g48
S'\x9a\x99\x99\x99\x99\x99R@'
p532
tp533
Rp534
ag44
(g48
S'\x00\x00\x00\x00\x00\xc0R@'
p535
tp536
Rp537
ag44
(g48
S'\x9a\x99\x99\x99\x99\x19S@'
p538
tp539
Rp540
ag44
(g48
S'\x00\x00\x00\x00\x00\x00S@'
p541
tp542
Rp543
asg251
(lp544
F0.0
aF0.0
aF0.0
aF0.0
aF0.0
aF0.0
aF0.0
aF0.0
aF0.0
aF0.0
asg253
(lp545
g44
(g48
S'\x97\xe8\xf6\xc1=P5@'
p546
tp547
Rp548
ag44
(g48
S'\x1f\xa3\xa22js4@'
p549
tp550
Rp551
ag44
(g48
S'\x97\xe8\xf6\xc1=P5@'
p552
tp553
Rp554
ag44
(g48
S'\xb9\x83\xad\xc4i\xd56@'
p555
tp556
Rp557
ag44
(g48
S'\xc7r\x06\x1d,\x905@'
p558
tp559
Rp560
ag44
(g48
S'\xc2"\xbf\xbcF\xf73@'
p561
tp562
Rp563
ag44
(g48
S'\xc2"\xbf\xbcF\xf73@'
p564
tp565
Rp566
ag44
(g48
S'\xdeS\xf4\x95=T4@'
p567
tp568
Rp569
ag44
(g48
S'\xa8\x92\xa4Sj05@'
p570
tp571
Rp572
ag44
(g48
S'\x11\xc5j\xf5\n\xf14@'
p573
tp574
Rp575
asg285
(lp576
g44
(g48
S'Nw~R\xd622@'
p577
tp578
Rp579
ag44
(g48
S'\x92\xd41\xabYb2@'
p580
tp581
Rp582
ag44
(g48
S'Z\xfa\xad\xc4\x1c\xc64@'
p583
tp584
Rp585
ag44
(g48
S'\n!\xe0\x04:\xca0@'
p586
tp587
Rp588
ag44
(g48
S'\x92\xe9\x1e\xb4g\x1f3@'
p589
tp590
Rp591
ag44
(g48
S'\x04\xe2Z\xb8\xb7_/@'
p592
tp593
Rp594
ag44
(g48
S'\x82\xee\xe3\xe9h\xc80@'
p595
tp596
Rp597
ag44
(g48
S'~T\xb8\xf2\xec\xe91@'
p598
tp599
Rp600
ag44
(g48
S'\xac\xfd\x91h\xd03.@'
p601
tp602
Rp603
ag44
(g48
S'\xc4\xf5u\xf8\x08\xcf/@'
p604
tp605
Rp606
assS'tire-1.cnf'
p607
(dp608
g3
(lp609
F0.0
aF0.0
aF0.0
aF9.5367431640625e-07
aF0.0
aF0.0
aF0.0
aF0.0
aF0.0
aF0.0
asg5
(lp610
g7
(S'29.43627003160238041586099203'
p611
tp612
Rp613
ag7
(S'29.43627003160238041586099203'
p614
tp615
Rp616
ag7
(S'29.43627003160238041586099203'
p617
tp618
Rp619
ag7
(S'29.43627003160238041586099203'
p620
tp621
Rp622
ag7
(S'29.43627003160238041586099203'
p623
tp624
Rp625
ag7
(S'29.43627003160238041586099203'
p626
tp627
Rp628
ag7
(S'29.43627003160238041586099203'
p629
tp630
Rp631
ag7
(S'29.43627003160238041586099203'
p632
tp633
Rp634
ag7
(S'29.43627003160238041586099203'
p635
tp636
Rp637
ag7
(S'29.43627003160238041586099203'
p638
tp639
Rp640
asg38
(lp641
F0.0
aF0.0
aF0.0
aF0.0
aF0.0
aF0.0
aF0.0
aF0.0
aF0.0
aF0.0
asg40
(lp642
F0.1
aF0.1
aF0.1
aF0.1
aF0.1
aF0.1
aF0.1
aF0.1
aF0.1
aF0.1
asg42
(lp643
g44
(g48
S'b\x8b\x07\x96\x0bTl@'
p644
tp645
Rp646
ag44
(g48
S'\xd4cf\xc2\xa6Kn@'
p647
tp648
Rp649
ag44
(g48
S'\xed$j\x12k\x06n@'
p650
tp651
Rp652
ag44
(g48
S'\r\xa2\xe9\xfd\xcc\xbfj@'
p653
tp654
Rp655
ag44
(g48
S'\xbc\x12\xa4\xacW\x14m@'
p656
tp657
Rp658
ag44
(g48
S'\xa8\x88\x88\x02\xd3?m@'
p659
tp660
Rp661
ag44
(g48
S'\x9e\xed\xa6\xfe_#o@'
p662
tp663
Rp664
ag44
(g48
S'h\xa7\xcd~HNj@'
p665
tp666
Rp667
ag44
(g48
S'\xc4u\xea?w\xf8m@'
p668
tp669
Rp670
ag44
(g48
S'T\xd4\x88)\x96\x17l@'
p671
tp672
Rp673
asg81
(lp674
F0.30324292182922363
aF0.32087111473083496
aF0.3163740634918213
aF0.3248159885406494
aF0.32721400260925293
aF0.3095409870147705
aF0.3207521438598633
aF0.311798095703125
aF0.3030128479003906
aF0.3163571357727051
asg83
(lp675
g44
(g48
S'U\xc8 \xbd\x8bZK@'
p676
tp677
Rp678
ag44
(g48
S'\x03P\x03\xff^\x91K@'
p679
tp680
Rp681
ag44
(g48
S'4P\xb8\xd6\xcb\xc6G@'
p682
tp683
Rp684
ag44
(g48
S'\x19!4o\x86\x07Q@'
p685
tp686
Rp687
ag44
(g48
S'~\xe2\xa4T\xd7\xfaM@'
p688
tp689
Rp690
ag44
(g48
S'\xf6\xcd\xcdh\xe8\x14M@'
p691
tp692
Rp693
ag44
(g48
S'\xfek\xf4\xe9\xa2\x1dM@'
p694
tp695
Rp696
ag44
(g48
S'M\xcd\xef3d\x8eP@'
p697
tp698
Rp699
ag44
(g48
S'\xb3\xc5v\xa8\x86\xa2I@'
p700
tp701
Rp702
ag44
(g48
S'h\xb6D\x1dX:L@'
p703
tp704
Rp705
asg115
(lp706
g44
(g48
S'6\xfdP\xd3\x0f5\x05@'
p707
tp708
Rp709
ag44
(g48
S'Dh0\x84\x06\xa3\x0c@'
p710
tp711
Rp712
ag44
(g48
S'\x03\xca\x1d\xa0\xdc\x81\x0b@'
p713
tp714
Rp715
ag44
(g48
S'\xe9\xa2\x8b.\xbah\x00@'
p716
tp717
Rp718
ag44
(g48
S'v\x9bc\xb79\xd6\x07@'
p719
tp720
Rp721
ag44
(g48
S'v\x80r\x07(w\x08@'
p722
tp723
Rp724
ag44
(g48
S'\x04\x94;@\xb93\x10@'
p725
tp726
Rp727
ag44
(g48
S'\xb3\xdb\x1c\xbb\xcdq\xfe?'
p728
tp729
Rp730
ag44
(g48
S'\xe9\xa2\x8b.\xbaH\x0b@'
p731
tp732
Rp733
ag44
(g48
S'n\x8e\xdd\xe6\xd8m\x04@'
p734
tp735
Rp736
asg147
(lp737
F0.0
aF0.0
aF0.0
aF0.0
aF0.0
aF0.0
aF0.0
aF0.0
aF0.0
aF0.0
asg149
(lp738
F0.1
aF0.1
aF0.1
aF0.1
aF0.1
aF0.1
aF0.1
aF0.1
aF0.1
aF0.1
asg151
(lp739
g44
(g48
S'\x08\xe3\x0b\xe6\xc0\x10-@'
p740
tp741
Rp742
ag44
(g48
S'\x08\xe3\x0b\xe6\xc0\x10-@'
p743
tp744
Rp745
ag44
(g48
S'\x08\xe3\x0b\xe6\xc0\x10-@'
p746
tp747
Rp748
ag44
(g48
S'\x08\xe3\x0b\xe6\xc0\x10-@'
p749
tp750
Rp751
ag44
(g48
S'\x08\xe3\x0b\xe6\xc0\x10-@'
p752
tp753
Rp754
ag44
(g48
S'\x08\xe3\x0b\xe6\xc0\x10-@'
p755
tp756
Rp757
ag44
(g48
S'\x08\xe3\x0b\xe6\xc0\x10-@'
p758
tp759
Rp760
ag44
(g48
S'\x08\xe3\x0b\xe6\xc0\x10-@'
p761
tp762
Rp763
ag44
(g48
S'\x08\xe3\x0b\xe6\xc0\x10-@'
p764
tp765
Rp766
ag44
(g48
S'\x08\xe3\x0b\xe6\xc0\x10-@'
p767
tp768
Rp769
asg183
(lp770
F0.0
aF0.0
aF0.0
aF0.0
aF0.0
aF0.0
aF0.0
aF0.0
aF0.0
aF0.0
asg185
(lp771
F3.392898134818859
aF3.4357303411263036
aF2.6774687523982825
aF4.733917208295689
aF3.9181288228665565
aF3.7384934430734242
aF3.7453126096246434
aF4.544645775731343
aF3.0491326296944967
aF3.5677405894949086
asg187
(lp772
g44
(g48
S'\x82\xe9\xf0\xb3t\xa2g@'
p773
tp774
Rp775
ag44
(g48
S'\xd9\xf3 \x10\x82\x01j@'
p776
tp777
Rp778
ag44
(g48
S'\n\xe4\xc8w(\xaei@'
p779
tp780
Rp781
ag44
(g48
S'/\xd2\x89g5\xb9e@'
p782
tp783
Rp784
ag44
(g48
S'\xf5)\xeeA~\x8ah@'
p785
tp786
Rp787
ag44
(g48
S'\x8d\r\x14\xe4\xe9\xbeh@'
p788
tp789
Rp790
ag44
(g48
S'\x86\x85\x01\xc8\x1a\x05k@'
p791
tp792
Rp793
ag44
(g48
S'6\xe2\xc1\x0c^/e@'
p794
tp795
Rp796
ag44
(g48
S'+\xf8\x02\x97[\x9di@'
p797
tp798
Rp799
ag44
(g48
S'0\x94\x88\x14lYg@'
p800
tp801
Rp802
asg219
(lp803
g44
(g48
S'\x9a\x99\x99\x99\x99\x99E@'
p804
tp805
Rp806
ag44
(g48
S'\x9a\x99\x99\x99\x99\x19I@'
p807
tp808
Rp809
ag44
(g48
S'\x9a\x99\x99\x99\x99\x99H@'
p810
tp811
Rp812
ag44
(g48
S'\x00\x00\x00\x00\x00\x00C@'
p813
tp814
Rp815
ag44
(g48
S'fffff\xe6F@'
p816
tp817
Rp818
ag44
(g48
S'333333G@'
p819
tp820
Rp821
ag44
(g48
S'33333\xb3J@'
p822
tp823
Rp824
ag44
(g48
S'\xcd\xcc\xcc\xcc\xccLB@'
p825
tp826
Rp827
ag44
(g48
S'\x00\x00\x00\x00\x00\x80H@'
p828
tp829
Rp830
ag44
(g48
S'333333E@'
p831
tp832
Rp833
asg251
(lp834
F0.0
aF0.0
aF0.0
aF0.0
aF0.0
aF0.0
aF0.0
aF0.0
aF0.0
aF0.0
asg253
(lp835
g44
(g48
S'\x19<\xb2\xe0t\xad\xf2?'
p836
tp837
Rp838
ag44
(g48
S'\x00\xd1z\xa9\xa0\xe9\xfc?'
p839
tp840
Rp841
ag44
(g48
S'a\xc2x\x89hP\xfb?'
p842
tp843
Rp844
ag44
(g48
S'\xd1\x85ViL\x08\xe9?'
p845
tp846
Rp847
ag44
(g48
S'\xe4\x9a\x15Z\x1a8\xf6?'
p848
tp849
Rp850
ag44
(g48
S'\xf8\xe2\xb7\xfb\x7f\x14\xf7?'
p851
tp852
Rp853
ag44
(g48
S'qxe\xaa\xa9*\x01@'
p854
tp855
Rp856
ag44
(g48
S'Be\xf7\xc8\x7f"\xe6?'
p857
tp858
Rp859
ag44
(g48
S'&J(\xfb\xf5\xff\xfa?'
p860
tp861
Rp862
ag44
(g48
S'q\xb6\x1a[P\xa6\xf1?'
p863
tp864
Rp865
asg285
(lp866
g44
(g48
S'`1X<\xb5\x08\xff?'
p867
tp868
Rp869
ag44
(g48
S'\xc0\x16-\x0f&\xb8\xff?'
p870
tp871
Rp872
ag44
(g48
S"\xf4\xb0\xd6'O\x96\xf3?"
p873
tp874
Rp875
ag44
(g48
S'\x12Bk\xd3\xc2>\n@'
p876
tp877
Rp878
ag44
(g48
S'\x8cB\xcc\xc3\x06\xb8\x03@'
p879
tp880
Rp881
ag44
(g48
S'~\xee@\x17"H\x02@'
p882
tp883
Rp884
ag44
(g48
S'\xf2\x84KL\x19V\x02@'
p885
tp886
Rp887
ag44
(g48
S'\x84\xcf\xc3\x15"\xbb\x08@'
p888
tp889
Rp890
ag44
(g48
S'\xf4(8\xfa\xa4\x88\xf9?'
p891
tp892
Rp893
ag44
(g48
S'hb2kn\xea\x00@'
p894
tp895
Rp896
assS'log-1.cnf'
p897
(dp898
g3
(lp899
F0.0
aF0.0
aF0.0
aF0.0
aF0.0
aF0.0
aF9.5367431640625e-07
aF0.0
aF9.5367431640625e-07
aF0.0
asg5
(lp900
g7
(S'68.93464978961923353115339571'
p901
tp902
Rp903
ag7
(S'68.93464978961923353115339571'
p904
tp905
Rp906
ag7
(S'68.93464978961923353115339571'
p907
tp908
Rp909
ag7
(S'68.93464978961923353115339571'
p910
tp911
Rp912
ag7
(S'68.93464978961923353115339571'
p913
tp914
Rp915
ag7
(S'68.93464978961923353115339571'
p916
tp917
Rp918
ag7
(S'68.93464978961923353115339571'
p919
tp920
Rp921
ag7
(S'68.93464978961923353115339571'
p922
tp923
Rp924
ag7
(S'68.93464978961923353115339571'
p925
tp926
Rp927
ag7
(S'68.93464978961923353115339571'
p928
tp929
Rp930
asg38
(lp931
F0.0
aF0.0
aF0.0
aF0.0
aF0.0
aF0.0
aF0.0
aF0.0
aF0.0
aF0.0
asg40
(lp932
F0.1
aF0.1
aF0.1
aF0.1
aF0.1
aF0.1
aF0.1
aF0.1
aF0.1
aF0.1
asg42
(lp933
g44
(g48
S'Ve\x9dh0\r\x81@'
p934
tp935
Rp936
ag44
(g48
S'\xdf\xc5\x93\x0b\xb7\xf6\x7f@'
p937
tp938
Rp939
ag44
(g48
S'\xbc\x93\xf9#\xac\xa4~@'
p940
tp941
Rp942
ag44
(g48
S'h\xd0\x823t?\x81@'
p943
tp944
Rp945
ag44
(g48
S'z\x15\x19\xbe\xa3E}@'
p946
tp947
Rp948
ag44
(g48
S'\x99\x1f\x9a\xd4<\x9e\x80@'
p949
tp950
Rp951
ag44
(g48
S'\xe9r-\x93@\x91\x80@'
p952
tp953
Rp954
ag44
(g48
S'*M\xdd\xe2\x91\xfb}@'
p955
tp956
Rp957
ag44
(g48
S'n\x94\xed\xe4\xb3=~@'
p958
tp959
Rp960
ag44
(g48
S'\xedK\x8a7\xb0\xae\x7f@'
p961
tp962
Rp963
asg81
(lp964
F0.6058440208435059
aF0.5707712173461914
aF0.5958068370819092
aF0.5595560073852539
aF0.6628060340881348
aF0.549548864364624
aF0.5665550231933594
aF0.5798189640045166
aF0.5632681846618652
aF0.5832338333129883
asg83
(lp965
g44
(g48
S'-\x91\xb6\xcb\x903`@'
p966
tp967
Rp968
ag44
(g48
S'\x9a\x12\xe5\x958\x11]@'
p969
tp970
Rp971
ag44
(g48
S'\xa8\xfe\xab\x06\x94\t_@'
p972
tp973
Rp974
ag44
(g48
S'\xb0\xedv\xe8\xb3\xc1Z@'
p975
tp976
Rp977
ag44
(g48
S'\xc3\x90\x88\xd2\xef\xce_@'
p978
tp979
Rp980
ag44
(g48
S'\x08\xd3\x81\xa0>\x84b@'
p981
tp982
Rp983
ag44
(g48
S'M\x1d\xf8\xfb8\xf2Z@'
p984
tp985
Rp986
ag44
(g48
S'&\x8c/\xd7\xec\x13_@'
p987
tp988
Rp989
ag44
(g48
S'\x98\x00\xe8\x82\xb4Y]@'
p990
tp991
Rp992
ag44
(g48
S':\xf1\x7f\x81;0]@'
p993
tp994
Rp995
asg115
(lp996
g44
(g48
S'\x98\x11\x01\xea\x1a4\x18@'
p997
tp998
Rp999
ag44
(g48
S'VRv\xea\xec\xd1\x12@'
p1000
tp1001
Rp1002
ag44
(g48
S',,\x9f\x14o\xf2\x0f@'
p1003
tp1004
Rp1005
ag44
(g48
S'\x9e:{\xb4>N\x19@'
p1006
tp1007
Rp1008
ag44
(g48
S'\x11\x8f\xbbks\xb8\n@'
p1009
tp1010
Rp1011
ag44
(g48
S'F\xfcQ\xd6Y\xe6\x15@'
p1012
tp1013
Rp1014
ag44
(g48
S'\x97%\xd3*3\xa4\x15@'
p1015
tp1016
Rp1017
ag44
(g48
S'\xfaM\xa6\xda\x9aX\r@'
p1018
tp1019
Rp1020
ag44
(g48
S'\xda`\xf5\xf9-X\x0e@'
p1021
tp1022
Rp1023
ag44
(g48
S'\xec\xa4\xdf\x8cN/\x12@'
p1024
tp1025
Rp1026
asg147
(lp1027
F0.0
aF0.0
aF0.0
aF0.0
aF0.0
aF0.0
aF0.0
aF0.0
aF0.0
aF0.0
asg149
(lp1028
F0.1
aF0.1
aF0.1
aF0.1
aF0.1
aF0.1
aF0.1
aF0.1
aF0.1
aF0.1
asg151
(lp1029
g44
(g48
S'\xd7\t=\xadm\xbc7@'
p1030
tp1031
Rp1032
ag44
(g48
S'\xd7\t=\xadm\xbc7@'
p1033
tp1034
Rp1035
ag44
(g48
S'\xd7\t=\xadm\xbc7@'
p1036
tp1037
Rp1038
ag44
(g48
S'\xd7\t=\xadm\xbc7@'
p1039
tp1040
Rp1041
ag44
(g48
S'\xd7\t=\xadm\xbc7@'
p1042
tp1043
Rp1044
ag44
(g48
S'\xd7\t=\xadm\xbc7@'
p1045
tp1046
Rp1047
ag44
(g48
S'\xd7\t=\xadm\xbc7@'
p1048
tp1049
Rp1050
ag44
(g48
S'\xd7\t=\xadm\xbc7@'
p1051
tp1052
Rp1053
ag44
(g48
S'\xd7\t=\xadm\xbc7@'
p1054
tp1055
Rp1056
ag44
(g48
S'\xd7\t=\xadm\xbc7@'
p1057
tp1058
Rp1059
asg183
(lp1060
F0.0
aF0.0
aF0.0
aF0.0
aF0.0
aF0.0
aF0.0
aF0.0
aF0.0
aF0.0
asg185
(lp1061
F7.418266036416117
aF6.0840313807619175
aF6.872089489497942
aF5.159784081800021
aF7.1804622698592215
aF9.270387999629733
aF5.23559631440483
aF6.888256570231187
aF6.197287763976963
aF6.132486705053134
asg187
(lp1062
g44
(g48
S'\xd75]*\x1e\xf5}@'
p1063
tp1064
Rp1065
ag44
(g48
S'\x9aR\xdc\xa3B\x8b{@'
p1066
tp1067
Rp1068
ag44
(g48
S'r\x06lz}\x0cz@'
p1069
tp1070
Rp1071
ag44
(g48
S'\x86\xcd\xee\rGf~@'
p1072
tp1073
Rp1074
ag44
(g48
S'\x82\x1d)\x7f\x9f}x@'
p1075
tp1076
Rp1077
ag44
(g48
S'\xf1\xf7`\xd0\x12\xfb|@'
p1078
tp1079
Rp1080
ag44
(g48
S'/\x11\xf0\xae\xc8\xdd|@'
p1081
tp1082
Rp1083
ag44
(g48
S'\xafG<\x1a\x89Ly@'
p1084
tp1085
Rp1086
ag44
(g48
S'\xa8Uyd\xa5\x97y@'
p1087
tp1088
Rp1089
ag44
(g48
S'\x90\xcdy\x87\xcd9{@'
p1090
tp1091
Rp1092
asg219
(lp1093
g44
(g48
S'fffff\xa6Z@'
p1094
tp1095
Rp1096
ag44
(g48
S'\x00\x00\x00\x00\x00\x80W@'
p1097
tp1098
Rp1099
ag44
(g48
S'fffff\xa6U@'
p1100
tp1101
Rp1102
ag44
(g48
S'\x00\x00\x00\x00\x00@[@'
p1103
tp1104
Rp1105
ag44
(g48
S'\xcd\xcc\xcc\xcc\xcc\xccS@'
p1106
tp1107
Rp1108
ag44
(g48
S'\x9a\x99\x99\x99\x99YY@'
p1109
tp1110
Rp1111
ag44
(g48
S'333333Y@'
p1112
tp1113
Rp1114
ag44
(g48
S'\x00\x00\x00\x00\x00\xc0T@'
p1115
tp1116
Rp1117
ag44
(g48
S'\x9a\x99\x99\x99\x99\x19U@'
p1118
tp1119
Rp1120
ag44
(g48
S'\x9a\x99\x99\x99\x99\x19W@'
p1121
tp1122
Rp1123
asg251
(lp1124
F0.0
aF0.0
aF0.0
aF0.0
aF0.0
aF0.0
aF0.0
aF0.0
aF0.0
aF0.0
asg253
(lp1125
g44
(g48
S'`\xcf4&\xff?\r@'
p1126
tp1127
Rp1128
ag44
(g48
S'\xe4A\x11e\xee\x07\x05@'
p1129
tp1130
Rp1131
ag44
(g48
S'\x0c\xdd\x10\x84\x9b\xd5\x00@'
p1132
tp1133
Rp1134
ag44
(g48
S'\xf3\xce+\xa3\x07\xf8\x0e@'
p1135
tp1136
Rp1137
ag44
(g48
S'/\xa7\xf4to5\xfa?'
p1138
tp1139
Rp1140
ag44
(g48
S'\x1e\x82{]\xb0\xb1\t@'
p1141
tp1142
Rp1143
ag44
(g48
S'_)}\xccrL\t@'
p1144
tp1145
Rp1146
ag44
(g48
S'"\xf5\'\xdcK\xec\xfd?'
p1147
tp1148
Rp1149
ag44
(g48
S'\x00\x90\x1e\xd4}Z\xff?'
p1150
tp1151
Rp1152
ag44
(g48
S'\xb8\xc8\x8cd\x86\x15\x04@'
p1153
tp1154
Rp1155
asg285
(lp1156
g44
(g48
S'\xaa\x1fB\xa9\xbb-\x14@'
p1157
tp1158
Rp1159
ag44
(g48
S'Tsj\x1a\xf4\xae\r@'
p1160
tp1161
Rp1162
ag44
(g48
S'Z\xb3\xa6\xc1r\xfe\x11@'
p1163
tp1164
Rp1165
ag44
(g48
S'\x00\xca\xd6U\x18J\x06@'
p1166
tp1167
Rp1168
ag44
(g48
S'\xb86\xa1\xd48:\x13@'
p1169
tp1170
Rp1171
ag44
(g48
S'f\xf22RN\x96\x1b@'
p1172
tp1173
Rp1174
ag44
(g48
S',/t\xc7[\xe5\x06@'
p1175
tp1176
Rp1177
ag44
(g48
S'\xf0\xc8\x12\xdc\x00\x0f\x12@'
p1178
tp1179
Rp1180
ag44
(g48
S'\xb49\xda\x10\xe7\x96\x0e@'
p1181
tp1182
Rp1183
ag44
(g48
S' \xa2\xf3\xa50\x12\x0e@'
p1184
tp1185
Rp1186
assS'c2670.isc'
p1187
(dp1188
g3
(lp1189
F0.0
aF0.0
aF0.0
aF0.0
aF0.0
aF9.5367431640625e-07
aF1.1920928955078125e-06
aF0.0
aF0.0
aF0.0
asg5
(lp1190
g7
(S'233.0000000000000000000000000'
p1191
tp1192
Rp1193
ag7
(S'233.0000000000000000000000000'
p1194
tp1195
Rp1196
ag7
(S'233.0000000000000000000000000'
p1197
tp1198
Rp1199
ag7
(S'233.0000000000000000000000000'
p1200
tp1201
Rp1202
ag7
(S'233.0000000000000000000000000'
p1203
tp1204
Rp1205
ag7
(S'233.0000000000000000000000000'
p1206
tp1207
Rp1208
ag7
(S'233.0000000000000000000000000'
p1209
tp1210
Rp1211
ag7
(S'233.0000000000000000000000000'
p1212
tp1213
Rp1214
ag7
(S'233.0000000000000000000000000'
p1215
tp1216
Rp1217
ag7
(S'233.0000000000000000000000000'
p1218
tp1219
Rp1220
asg38
(lp1221
F0.0
aF0.0
aF0.0
aF0.0
aF0.0
aF0.0
aF0.0
aF0.0
aF0.0
aF0.0
asg40
(lp1222
F0.25
aF0.25
aF0.25
aF0.25
aF0.25
aF0.25
aF0.25
aF0.25
aF0.25
aF0.25
asg42
(lp1223
g44
(g48
S'\xf3\x94"l\xde\xa1\x91@'
p1224
tp1225
Rp1226
ag44
(g48
S'u\xbf\x129[\x89\x91@'
p1227
tp1228
Rp1229
ag44
(g48
S'\xc8\xef\x15%h\x9b\x91@'
p1230
tp1231
Rp1232
ag44
(g48
S"j'\xb9\x03\x07\x9d\x91@"
p1233
tp1234
Rp1235
ag44
(g48
S'R\x0c"\xf4\xa5l\x91@'
p1236
tp1237
Rp1238
ag44
(g48
S'\xda\x06\x07DV\x7f\x91@'
p1239
tp1240
Rp1241
ag44
(g48
S'\x98\x0b\xe4\xe9\xb1\x87\x91@'
p1242
tp1243
Rp1244
ag44
(g48
S'YF\x14\xad\\\x84\x91@'
p1245
tp1246
Rp1247
ag44
(g48
S'\xf4\x80\xc2H\xf8{\x91@'
p1248
tp1249
Rp1250
ag44
(g48
S'\x1d\xdb\xb3\x7foy\x91@'
p1251
tp1252
Rp1253
asg81
(lp1254
F16.637980222702026
aF22.540472984313965
aF19.13900089263916
aF15.177909851074219
aF18.917092084884644
aF24.119318962097168
aF19.96321201324463
aF19.28790307044983
aF19.086039066314697
aF27.24466896057129
asg83
(lp1255
g44
(g48
S"\x03'f\xf3N\xb9z@"
p1256
tp1257
Rp1258
ag44
(g48
S'\xe0\x08\xe5IA\xa9{@'
p1259
tp1260
Rp1261
ag44
(g48
S'\x03\xe5\x03\xa0x+{@'
p1262
tp1263
Rp1264
ag44
(g48
S'\xc5\xdf\xef\x8a\xdd\x16z@'
p1265
tp1266
Rp1267
ag44
(g48
S']\x00wEZ\x9ez@'
p1268
tp1269
Rp1270
ag44
(g48
S'\xbda\xac\xb3LZ{@'
p1271
tp1272
Rp1273
ag44
(g48
S'{}xb\x01\xa0{@'
p1274
tp1275
Rp1276
ag44
(g48
S'\xea\xeedCu%|@'
p1277
tp1278
Rp1279
ag44
(g48
S'\xdeq/yA\xdcz@'
p1280
tp1281
Rp1282
ag44
(g48
S'6\x10\x87\x10\xb0,z@'
p1283
tp1284
Rp1285
asg115
(lp1286
g44
(g48
S'\x8f\xebsR\xd8\xa0M@'
p1287
tp1288
Rp1289
ag44
(g48
S'\xa3\x9d\xabsS\xb4L@'
p1290
tp1291
Rp1292
ag44
(g48
S'M\xe9|.haM@'
p1293
tp1294
Rp1295
ag44
(g48
S'\xc5v\xad\xd2=qM@'
p1296
tp1297
Rp1298
ag44
(g48
S'\xcd\xcc\xcc\xcc\xcc\xacK@'
p1299
tp1300
Rp1301
ag44
(g48
S'\xa9\xe0\x05q\xc4VL@'
p1302
tp1303
Rp1304
ag44
(g48
S'\xf6\xa8\xe4\xf5\xb0\xa4L@'
p1305
tp1306
Rp1307
ag44
(g48
S'\xd8%\xf1\xc3x\x85L@'
p1308
tp1309
Rp1310
ag44
(g48
S'\x8b\x07\x15\xdf\xb67L@'
p1311
tp1312
Rp1313
ag44
(g48
S'\x1f~\x07\xe2w L@'
p1314
tp1315
Rp1316
asg147
(lp1317
F0.0
aF0.0
aF0.0
aF0.0
aF0.0
aF0.0
aF0.0
aF0.0
aF0.0
aF0.0
asg149
(lp1318
F0.25
aF0.25
aF0.25
aF0.25
aF0.25
aF0.25
aF0.25
aF0.25
aF0.25
aF0.25
asg151
(lp1319
g44
(g48
S'5\xf4F)\x89*;@'
p1320
tp1321
Rp1322
ag44
(g48
S'5\xf4F)\x89*;@'
p1323
tp1324
Rp1325
ag44
(g48
S'5\xf4F)\x89*;@'
p1326
tp1327
Rp1328
ag44
(g48
S'5\xf4F)\x89*;@'
p1329
tp1330
Rp1331
ag44
(g48
S'5\xf4F)\x89*;@'
p1332
tp1333
Rp1334
ag44
(g48
S'5\xf4F)\x89*;@'
p1335
tp1336
Rp1337
ag44
(g48
S'5\xf4F)\x89*;@'
p1338
tp1339
Rp1340
ag44
(g48
S'5\xf4F)\x89*;@'
p1341
tp1342
Rp1343
ag44
(g48
S'5\xf4F)\x89*;@'
p1344
tp1345
Rp1346
ag44
(g48
S'5\xf4F)\x89*;@'
p1347
tp1348
Rp1349
asg183
(lp1350
F0.0
aF0.0
aF0.0
aF0.0
aF0.0
aF0.0
aF0.0
aF0.0
aF0.0
aF0.0
asg185
(lp1351
F58.87611491168105
aF62.62528104165968
aF60.659908507991766
aF56.33794303333733
aF58.45493086441517
aF61.391602647985714
aF62.48075565103421
aF64.56595331996948
aF59.42216731663273
aF56.67891726662679
asg187
(lp1352
g44
(g48
S'\xb9\xc4\t&\xb8,\x91@'
p1353
tp1354
Rp1355
ag44
(g48
S'?\xb7\xa0\x80\xaf\x10\x91@'
p1356
tp1357
Rp1358
ag44
(g48
S'\xb8g;3R%\x91@'
p1359
tp1360
Rp1361
ag44
(g48
S"\xb8\x85$\t-'\x91@"
p1362
tp1363
Rp1364
ag44
(g48
S'\xa0\x1en\x83\xf3\xef\x90@'
p1365
tp1366
Rp1367
ag44
(g48
S'h\xea\xbd\xe2?\x05\x91@'
p1368
tp1369
Rp1370
ag44
(g48
S'\xfb\xbbo\xd5\xc9\x0e\x91@'
p1371
tp1372
Rp1373
ag44
(g48
S'\x90\x80\xec\xc6\xfb\n\x91@'
p1374
tp1375
Rp1376
ag44
(g48
S'\xaa\xde`\xbfh\x01\x91@'
p1377
tp1378
Rp1379
ag44
(g48
S'7>Z\x01\x85\xfe\x90@'
p1380
tp1381
Rp1382
asg219
(lp1383
g44
(g48
S'\xcd\xcc\xcc\xcc\xcc\xdcw@'
p1384
tp1385
Rp1386
ag44
(g48
S'\xcd\xcc\xcc\xcc\xcc|w@'
p1387
tp1388
Rp1389
ag44
(g48
S'33333\xc3w@'
p1390
tp1391
Rp1392
ag44
(g48
S'\x9a\x99\x99\x99\x99\xc9w@'
p1393
tp1394
Rp1395
ag44
(g48
S'\x00\x00\x00\x00\x00\x10w@'
p1396
tp1397
Rp1398
ag44
(g48
S'fffffVw@'
p1399
tp1400
Rp1401
ag44
(g48
S'fffffvw@'
p1402
tp1403
Rp1404
ag44
(g48
S'\x9a\x99\x99\x99\x99iw@'
p1405
tp1406
Rp1407
ag44
(g48
S'\x9a\x99\x99\x99\x99Iw@'
p1408
tp1409
Rp1410
ag44
(g48
S'\x00\x00\x00\x00\x00@w@'
p1411
tp1412
Rp1413
asg251
(lp1414
F0.0
aF0.0
aF0.0
aF0.0
aF0.0
aF0.0
aF0.0
aF0.0
aF0.0
aF0.0
asg253
(lp1415
g44
(g48
S'U\xeaK\xe1\xe0\x8fI@'
p1416
tp1417
Rp1418
ag44
(g48
S'\xd1_\xa7ZR\xb4H@'
p1419
tp1420
Rp1421
ag44
(g48
S'\xda\xc6\xb3\xb2\xf6TI@'
p1422
tp1423
Rp1424
ag44
(g48
S'\xa0\x9c\x8c\xd9\xaacI@'
p1425
tp1426
Rp1427
ag44
(g48
S'\xc6\xc1\x9b\x06\x05\xc0G@'
p1428
tp1429
Rp1430
ag44
(g48
S'\x00\xf1\x0fH\x8c]H@'
p1431
tp1432
Rp1433
ag44
(g48
S'\xd7"8Z\xd1\xa5H@'
p1434
tp1435
Rp1436
ag44
(g48
S'\x1d\x0f\xf4"\xdc\x88H@'
p1437
tp1438
Rp1439
ag44
(g48
S'G\x87\xce\xb0\xc1@H@'
p1440
tp1441
Rp1442
ag44
(g48
S'e\x91\xc4\xef4+H@'
p1443
tp1444
Rp1445
asg285
(lp1446
g44
(g48
S'\x1b\xbcec\xd3\nJ@'
p1447
tp1448
Rp1449
ag44
(g48
S'\xd5\x7fc\x10\xb8\xeaK@'
p1450
tp1451
Rp1452
ag44
(g48
S'\x1b8\xa1\xbc&\xefJ@'
p1453
tp1454
Rp1455
ag44
(g48
S'\x9f-y\x92\xf0\xc5H@'
p1456
tp1457
Rp1458
ag44
(g48
S'\xcfn\x87\x07\xea\xd4I@'
p1459
tp1460
Rp1461
ag44
(g48
S'\x8f1\xf2\xe3\xceLK@'
p1462
tp1463
Rp1464
ag44
(g48
S'\x0bi\x8aA8\xd8K@'
p1465
tp1466
Rp1467
ag44
(g48
S'\xe9Kc\x03 \xe3L@'
p1468
tp1469
Rp1470
ag44
(g48
S'\xd1Q\xf8n\xb8PJ@'
p1471
tp1472
Rp1473
ag44
(g48
S'\x81\x8e\xa7\x9d\x95\xf1H@'
p1474
tp1475
Rp1476
assS'log-3.cnf'
p1477
(dp1478
g3
(lp1479
F0.0
aF9.5367431640625e-07
aF0.0
aF0.0
aF0.0
aF0.0
aF0.0
aF0.0
aF0.0
aF9.5367431640625e-07
asg5
(lp1480
g7
(S'38.02590125972192792986888030'
p1481
tp1482
Rp1483
ag7
(S'38.02590125972192792986888030'
p1484
tp1485
Rp1486
ag7
(S'38.02590125972192792986888030'
p1487
tp1488
Rp1489
ag7
(S'38.02590125972192792986888030'
p1490
tp1491
Rp1492
ag7
(S'38.02590125972192792986888030'
p1493
tp1494
Rp1495
ag7
(S'38.02590125972192792986888030'
p1496
tp1497
Rp1498
ag7
(S'38.02590125972192792986888030'
p1499
tp1500
Rp1501
ag7
(S'38.02590125972192792986888030'
p1502
tp1503
Rp1504
ag7
(S'38.02590125972192792986888030'
p1505
tp1506
Rp1507
ag7
(S'38.02590125972192792986888030'
p1508
tp1509
Rp1510
asg38
(lp1511
F0.0
aF0.0
aF0.0
aF0.0
aF0.0
aF0.0
aF0.0
aF0.0
aF0.0
aF0.0
asg40
(lp1512
F0.01
aF0.01
aF0.01
aF0.01
aF0.01
aF0.01
aF0.01
aF0.01
aF0.01
aF0.01
asg42
(lp1513
g44
(g48
S'|.~\x99\x83\xd9\x80@'
p1514
tp1515
Rp1516
ag44
(g48
S'<\xe90\xbdl\x9a|@'
p1517
tp1518
Rp1519
ag44
(g48
S'\xba\x07\xcd~\xb7\xe2}@'
p1520
tp1521
Rp1522
ag44
(g48
S'\x98\x80\xf6\xe1\xc5\xf0\x80@'
p1523
tp1524
Rp1525
ag44
(g48
S'\x0c\xf4\xab.\x9c(\x80@'
p1526
tp1527
Rp1528
ag44
(g48
S'_\x8a3!\xf7\xea\x80@'
p1529
tp1530
Rp1531
ag44
(g48
S'aG4\x96\xe9\xda\x81@'
p1532
tp1533
Rp1534
ag44
(g48
S'\xbc\xf4\xf8zH\xb5~@'
p1535
tp1536
Rp1537
ag44
(g48
S'\xf1\x1b7f|\x8b{@'
p1538
tp1539
Rp1540
ag44
(g48
S'\xa9\xfbe*\xdb\xcd\x80@'
p1541
tp1542
Rp1543
asg81
(lp1544
F32.28789806365967
aF31.72981595993042
aF34.14365887641907
aF29.801437854766846
aF34.306015968322754
aF31.151687145233154
aF33.983113050460815
aF35.60484504699707
aF38.07378602027893
aF33.84297585487366
asg83
(lp1545
g44
(g48
S'\x9cDl7\x93uV@'
p1546
tp1547
Rp1548
ag44
(g48
S'\xd9\xcf\xff\xaa.\x1cS@'
p1549
tp1550
Rp1551
ag44
(g48
S'\x84\x08\x83\x05\x92\x95W@'
p1552
tp1553
Rp1554
ag44
(g48
S'X\xfd$\x9d\xac\x84T@'
p1555
tp1556
Rp1557
ag44
(g48
S'\xb6\x98k\xc5\xefZS@'
p1558
tp1559
Rp1560
ag44
(g48
S'\xaa!]\x88G;V@'
p1561
tp1562
Rp1563
ag44
(g48
S'b\xca,7@\xa9W@'
p1564
tp1565
Rp1566
ag44
(g48
S'\xe6\xcd\x10\xef\xbc\xd9U@'
p1567
tp1568
Rp1569
ag44
(g48
S'\xa3\xc0\xf5\xc7\xa8\xe3U@'
p1570
tp1571
Rp1572
ag44
(g48
S'\x0b\x9e\xcfo1\x9f[@'
p1573
tp1574
Rp1575
asg115
(lp1576
g44
(g48
S'\xfet\xb0_\xdcC\x00@'
p1577
tp1578
Rp1579
ag44
(g48
S'\t\x0e\xdb\xb1J\xc1\xf0?'
p1580
tp1581
Rp1582
ag44
(g48
S'\xb0\xeb\xae\xc3~\x1c\xf4?'
p1583
tp1584
Rp1585
ag44
(g48
S'0M\x89V7\x9c\x00@'
p1586
tp1587
Rp1588
ag44
(g48
S'\xc5\xcb\xf2\xf5\x86\x95\xfb?'
p1589
tp1590
Rp1591
ag44
(g48
S'q\xd8\x8eU\n\x86\x00@'
p1592
tp1593
Rp1594
ag44
(g48
S'B\x96\xaaQW[\x04@'
p1595
tp1596
Rp1597
ag44
(g48
S'\x9b\xd5a\x94\xa9x\xf6?'
p1598
tp1599
Rp1600
ag44
(g48
S'\xfaj\xe3\x87\x15\x89\xec?'
p1601
tp1602
Rp1603
ag44
(g48
S'\xb5\x03U\xf1\x07\x18\x00@'
p1604
tp1605
Rp1606
asg147
(lp1607
F0.0
aF0.0
aF0.0
aF0.0
aF0.0
aF0.0
aF0.0
aF0.0
aF0.0
aF0.0
asg149
(lp1608
F0.01
aF0.01
aF0.1
aF0.01
aF0.01
aF0.01
aF0.1
aF0.01
aF0.01
aF0.1
asg151
(lp1609
g44
(g48
S'\x15\x00\xdf\x0f\xf4\x1d=@'
p1610
tp1611
Rp1612
ag44
(g48
S'\x15\x00\xdf\x0f\xf4\x1d=@'
p1613
tp1614
Rp1615
ag44
(g48
S'\x15\x00\xdf\x0f\xf4\x1d=@'
p1616
tp1617
Rp1618
ag44
(g48
S'\x15\x00\xdf\x0f\xf4\x1d=@'
p1619
tp1620
Rp1621
ag44
(g48
S'\x15\x00\xdf\x0f\xf4\x1d=@'
p1622
tp1623
Rp1624
ag44
(g48
S'\x15\x00\xdf\x0f\xf4\x1d=@'
p1625
tp1626
Rp1627
ag44
(g48
S'\x15\x00\xdf\x0f\xf4\x1d=@'
p1628
tp1629
Rp1630
ag44
(g48
S'\x15\x00\xdf\x0f\xf4\x1d=@'
p1631
tp1632
Rp1633
ag44
(g48
S'\x15\x00\xdf\x0f\xf4\x1d=@'
p1634
tp1635
Rp1636
ag44
(g48
S'\x15\x00\xdf\x0f\xf4\x1d=@'
p1637
tp1638
Rp1639
asg183
(lp1640
F0.0
aF0.0
aF0.0
aF0.0
aF0.0
aF0.0
aF0.0
aF0.0
aF0.0
aF0.0
asg185
(lp1641
F0.8168316108860785
aF0.6828639909337416
aF1.09282570400595
aF0.73919086219826
aF0.6926693517779572
aF0.8077229171454079
aF1.1235763997856179
aF0.7924820731385043
aF0.7940322728720689
aF2.7078611973597138
asg187
(lp1642
g44
(g48
S'\x82\xb5l\x9fn\xa4z@'
p1643
tp1644
Rp1645
ag44
(g48
S'\x0e\xa8\xf6\x8f@\xc9t@'
p1646
tp1647
Rp1648
ag44
(g48
S'^S\x05\x81\xb4Ev@'
p1649
tp1650
Rp1651
ag44
(g48
S'{J\xd7)U\xd9z@'
p1652
tp1653
Rp1654
ag44
(g48
S'\xdf\xe5\xa4C\xf7\x10y@'
p1655
tp1656
Rp1657
ag44
(g48
S'\x04\xdbCq \xccz@'
p1658
tp1659
Rp1660
ag44
(g48
S'\xf9*\xc1\x1b%\xec|@'
p1661
tp1662
Rp1663
ag44
(g48
S'/\x8b\xc0\x08}8w@'
p1664
tp1665
Rp1666
ag44
(g48
S'yZ\xbf\xdfJ\x8ds@'
p1667
tp1668
Rp1669
ag44
(g48
S'T\xfa>\x9d\xe7\x89z@'
p1670
tp1671
Rp1672
asg219
(lp1673
g44
(g48
S'33333\xf3R@'
p1674
tp1675
Rp1676
ag44
(g48
S'333333K@'
p1677
tp1678
Rp1679
ag44
(g48
S'\xcd\xcc\xcc\xcc\xcc\xccM@'
p1680
tp1681
Rp1682
ag44
(g48
S'fffff&S@'
p1683
tp1684
Rp1685
ag44
(g48
S'33333sQ@'
p1686
tp1687
Rp1688
ag44
(g48
S'\x9a\x99\x99\x99\x99\x19S@'
p1689
tp1690
Rp1691
ag44
(g48
S'333333U@'
p1692
tp1693
Rp1694
ag44
(g48
S'\x00\x00\x00\x00\x00\x80O@'
p1695
tp1696
Rp1697
ag44
(g48
S'\x9a\x99\x99\x99\x99\x19I@'
p1698
tp1699
Rp1700
ag44
(g48
S'\x9a\x99\x99\x99\x99\xd9R@'
p1701
tp1702
Rp1703
asg251
(lp1704
F0.0
aF0.0
aF0.0
aF0.0
aF0.0
aF0.0
aF0.0
aF0.0
aF0.0
aF0.0
asg253
(lp1705
g44
(g48
S',\x06-\x94Z\xad\xe8?'
p1706
tp1707
Rp1708
ag44
(g48
S'P\x85\xb1X\xfd\xf3\xcc?'
p1709
tp1710
Rp1711
ag44
(g48
S'\xf4;\xa5\x043\x0b\xd5?'
p1712
tp1713
Rp1714
ag44
(g48
S'\xfe\xf0\xdep\xba\x87\xe9?'
p1715
tp1716
Rp1717
ag44
(g48
S'T\xbe\x83\xf7\xd0\xbd\xe2?'
p1718
tp1719
Rp1720
ag44
(g48
S'~{\xa1l\xc9P\xe9?'
p1721
tp1722
Rp1723
ag44
(g48
S'*\x8ed\xb5\xff\x8d\xf1?'
p1724
tp1725
Rp1726
ag44
(g48
S'\x16y\x8cR\xf8\xff\xd9?'
p1727
tp1728
Rp1729
ag44
(g48
S'\xc9m\xf5\xcd\xf9!\xc4?'
p1730
tp1731
Rp1732
ag44
(g48
S'\xfc\xfb\x17\xda\x8eA\xe8?'
p1733
tp1734
Rp1735
asg285
(lp1736
g44
(g48
S'e\xa1\xc4/8\xd2\xe0?'
p1737
tp1738
Rp1739
ag44
(g48
S'H~\xeer\x83\x11\xd9?'
p1740
tp1741
Rp1742
ag44
(g48
S'\x13\xee=\x7f\xdaB\xe2?'
p1743
tp1744
Rp1745
ag44
(g48
S'dclx_\xac\xdc?'
p1746
tp1747
Rp1748
ag44
(g48
S'\x92.\xf8\x1c*\xb2\xd9?'
p1749
tp1750
Rp1751
ag44
(g48
S'mj\r\xdf\x99\x87\xe0?'
p1752
tp1753
Rp1754
ag44
(g48
S'N\x94\xa6b\x0b\\\xe2?'
p1755
tp1756
Rp1757
ag44
(g48
S'\xaf\x13;\x81\xbf\n\xe0?'
p1758
tp1759
Rp1760
ag44
(g48
S'n!`\x82r\x17\xe0?'
p1761
tp1762
Rp1763
ag44
(g48
S'\xfe\x98\x10\xfd\xe3m\xe7?'
p1764
tp1765
Rp1766
assS'tire-3.cnf'
p1767
(dp1768
g3
(lp1769
F0.0
aF0.0
aF9.5367431640625e-07
aF0.0
aF9.5367431640625e-07
aF0.0
aF9.5367431640625e-07
aF9.5367431640625e-07
aF0.0
aF9.5367431640625e-07
asg5
(lp1770
g7
(S'37.69540602114253993963436454'
p1771
tp1772
Rp1773
ag7
(S'37.69540602114253993963436454'
p1774
tp1775
Rp1776
ag7
(S'37.69540602114253993963436454'
p1777
tp1778
Rp1779
ag7
(S'37.69540602114253993963436454'
p1780
tp1781
Rp1782
ag7
(S'37.69540602114253993963436454'
p1783
tp1784
Rp1785
ag7
(S'37.69540602114253993963436454'
p1786
tp1787
Rp1788
ag7
(S'37.69540602114253993963436454'
p1789
tp1790
Rp1791
ag7
(S'37.69540602114253993963436454'
p1792
tp1793
Rp1794
ag7
(S'37.69540602114253993963436454'
p1795
tp1796
Rp1797
ag7
(S'37.69540602114253993963436454'
p1798
tp1799
Rp1800
asg38
(lp1801
F0.0
aF0.0
aF0.0
aF0.0
aF0.0
aF0.0
aF0.0
aF0.0
aF0.0
aF0.0
asg40
(lp1802
F0.1
aF0.1
aF0.1
aF0.1
aF0.1
aF0.01
aF0.01
aF0.1
aF0.1
aF0.1
asg42
(lp1803
g44
(g48
S'\x8cP\x8f\xc2\xce=r@'
p1804
tp1805
Rp1806
ag44
(g48
S'QhE0\xc5\xafs@'
p1807
tp1808
Rp1809
ag44
(g48
S'\x0e^<\x11\xd1ys@'
p1810
tp1811
Rp1812
ag44
(g48
S'\x08k\x9c\x01\xdc\x94s@'
p1813
tp1814
Rp1815
ag44
(g48
S'\xf0d\x86\xd4\xd5Du@'
p1816
tp1817
Rp1818
ag44
(g48
S'\x84j\xf2\x8c\x8dUs@'
p1819
tp1820
Rp1821
ag44
(g48
S'W\x80\x7f\x9e\xbc\xd4r@'
p1822
tp1823
Rp1824
ag44
(g48
S'\xd7\x0f\xfej\x92\xacq@'
p1825
tp1826
Rp1827
ag44
(g48
S'\x9f\x1b"_\x88\x08t@'
p1828
tp1829
Rp1830
ag44
(g48
S'|\x19`\xcaI\xe0t@'
p1831
tp1832
Rp1833
asg81
(lp1834
F0.38755321502685547
aF0.40169596672058105
aF0.39970898628234863
aF0.44181299209594727
aF0.3878941535949707
aF0.3867990970611572
aF0.41190004348754883
aF0.3939969539642334
aF0.4476468563079834
aF0.45232105255126953
asg83
(lp1835
g44
(g48
S'\x92i\x95U|\xd1U@'
p1836
tp1837
Rp1838
ag44
(g48
S'\xc2\x14\xd4\x9f\x0c\xb0P@'
p1839
tp1840
Rp1841
ag44
(g48
S'+I\rS\xf2bT@'
p1842
tp1843
Rp1844
ag44
(g48
S's\x05w\xc1O\xd7Q@'
p1845
tp1846
Rp1847
ag44
(g48
S'2tL[\x03\x0eO@'
p1848
tp1849
Rp1850
ag44
(g48
S'\xeah1jC\xebJ@'
p1851
tp1852
Rp1853
ag44
(g48
S'\x16\x1a\r\xfc\xfe"K@'
p1854
tp1855
Rp1856
ag44
(g48
S'Q!O\x12$\xc0Q@'
p1857
tp1858
Rp1859
ag44
(g48
S'\x1a\xf74\xd9\x95,Q@'
p1860
tp1861
Rp1862
ag44
(g48
S'\xfb\xbeB1\x06\nP@'
p1863
tp1864
Rp1865
asg115
(lp1866
g44
(g48
S'9\xfe\x037\x84V\xfd?'
p1867
tp1868
Rp1869
ag44
(g48
S'z\xad9\xfe\x037\x04@'
p1870
tp1871
Rp1872
ag44
(g48
S'q\xcf/\n\x92S\x03@'
p1873
tp1874
Rp1875
ag44
(g48
S'8\x8c\xdbu\xa7\xc4\x03@'
p1876
tp1877
Rp1878
ag44
(g48
S'\xf3f/\xf9\x7f\xdd\x0b@'
p1879
tp1880
Rp1881
ag44
(g48
S'\xd5\xe1C\xa7\xc7\xbe\x02@'
p1882
tp1883
Rp1884
ag44
(g48
S'\xf3\xa0\xcb\xde\xe6\xc7\x00@'
p1885
tp1886
Rp1887
ag44
(g48
S'\xc2\x8b\x85\x13\xd4\xa2\xf9?'
p1888
tp1889
Rp1890
ag44
(g48
S'\xd4c_\xe9r\xbd\x05@'
p1891
tp1892
Rp1893
ag44
(g48
S'\x88N\x8f}\xa5\xcb\t@'
p1894
tp1895
Rp1896
asg147
(lp1897
F0.0
aF0.0
aF0.0
aF0.0
aF0.0
aF0.0
aF0.0
aF0.0
aF0.0
aF0.0
asg149
(lp1898
F0.1
aF0.1
aF0.1
aF0.1
aF0.1
aF0.1
aF0.1
aF0.1
aF0.1
aF0.1
asg151
(lp1899
g44
(g48
S'\xd1\x06\xf0V@\x9b2@'
p1900
tp1901
Rp1902
ag44
(g48
S'\xd1\x06\xf0V@\x9b2@'
p1903
tp1904
Rp1905
ag44
(g48
S'\xd1\x06\xf0V@\x9b2@'
p1906
tp1907
Rp1908
ag44
(g48
S'\xd1\x06\xf0V@\x9b2@'
p1909
tp1910
Rp1911
ag44
(g48
S'\xd1\x06\xf0V@\x9b2@'
p1912
tp1913
Rp1914
ag44
(g48
S'\xd1\x06\xf0V@\x9b2@'
p1915
tp1916
Rp1917
ag44
(g48
S'\xd1\x06\xf0V@\x9b2@'
p1918
tp1919
Rp1920
ag44
(g48
S'\xd1\x06\xf0V@\x9b2@'
p1921
tp1922
Rp1923
ag44
(g48
S'\xd1\x06\xf0V@\x9b2@'
p1924
tp1925
Rp1926
ag44
(g48
S'\xd1\x06\xf0V@\x9b2@'
p1927
tp1928
Rp1929
asg183
(lp1930
F0.0
aF0.0
aF0.0
aF0.0
aF0.0
aF0.0
aF0.0
aF0.0
aF0.0
aF0.0
asg185
(lp1931
F5.3213152692081405
aF3.269070945592104
aF4.748597923690401
aF3.7304181830952783
aF2.8049416364357396
aF1.9777933764903364
aF2.0213345439661823
aF3.694214055883117
aF3.46365849524167
aF3.0096566883586005
asg187
(lp1932
g44
(g48
S'\x8f\x8781\xc8\xefl@'
p1933
tp1934
Rp1935
ag44
(g48
S'\xbc\x9ad_\x01+p@'
p1936
tp1937
Rp1938
ag44
(g48
S'\xd2\xc2\x89\x80\x89\xd7o@'
p1939
tp1940
Rp1941
ag44
(g48
S'q\xe7;\x03y\x0bp@'
p1942
tp1943
Rp1944
ag44
(g48
S"\x1f\xd4'I\xd8\x03r@"
p1945
tp1946
Rp1947
ag44
(g48
S'\xc6\xd2\xd5\x00t\x82o@'
p1948
tp1949
Rp1950
ag44
(g48
S'[\xe8\xa6\xcf\xaeSn@'
p1951
tp1952
Rp1953
ag44
(g48
S'\x8cn\x0c8\xfd\x97k@'
p1954
tp1955
Rp1956
ag44
(g48
S'\xfeXI\xb9\xe5\x92p@'
p1957
tp1958
Rp1959
ag44
(g48
S'>\x9c\x1cG\xc2\x8eq@'
p1960
tp1961
Rp1962
asg219
(lp1963
g44
(g48
S'\x00\x00\x00\x00\x00\x00G@'
p1964
tp1965
Rp1966
ag44
(g48
S'\x00\x00\x00\x00\x00\x00K@'
p1967
tp1968
Rp1969
ag44
(g48
S'ffffffJ@'
p1970
tp1971
Rp1972
ag44
(g48
S'33333\xb3J@'
p1973
tp1974
Rp1975
ag44
(g48
S'33333\xb3O@'
p1976
tp1977
Rp1978
ag44
(g48
S'\x00\x00\x00\x00\x00\x00J@'
p1979
tp1980
Rp1981
ag44
(g48
S'\x9a\x99\x99\x99\x99\x99H@'
p1982
tp1983
Rp1984
ag44
(g48
S'\x00\x00\x00\x00\x00\x80E@'
p1985
tp1986
Rp1987
ag44
(g48
S'\x00\x00\x00\x00\x00\x00L@'
p1988
tp1989
Rp1990
ag44
(g48
S'\x00\x00\x00\x00\x00\x80N@'
p1991
tp1992
Rp1993
asg251
(lp1994
F0.0
aF0.0
aF0.0
aF0.0
aF0.0
aF0.0
aF0.0
aF0.0
aF0.0
aF0.0
asg253
(lp1995
g44
(g48
S'\xf9\xd0\xf5\xe5\xf9\xce\xe4?'
p1996
tp1997
Rp1998
ag44
(g48
S'\xe8\xcf.FV^\xf1?'
p1999
tp2000
Rp2001
ag44
(g48
S'\t\xff\xa3U\xf25\xf0?'
p2002
tp2003
Rp2004
ag44
(g48
S'\xfb\x0271\xdd\xc8\xf0?'
p2005
tp2006
Rp2007
ag44
(g48
S'\xcde\x14)\xb9\xd1\xfb?'
p2008
tp2009
Rp2010
ag44
(g48
S'\xe2+\xa4i\x10\xec\xee?'
p2011
tp2012
Rp2013
ag44
(g48
S'E\xc7\xec\xca7\xf4\xe9?'
p2014
tp2015
Rp2016
ag44
(g48
S'\x05\x84\xa5t\x19\x80\xe0?'
p2017
tp2018
Rp2019
ag44
(g48
S'G_\xeb\x7f\tc\xf3?'
p2020
tp2021
Rp2022
ag44
(g48
S'_\x0b\xe6 \x04\xeb\xf8?'
p2023
tp2024
Rp2025
asg285
(lp2026
g44
(g48
S'\xc16A\xdes\xaf\x0b@'
p2027
tp2028
Rp2029
ag44
(g48
S'\x86\x1b\xad\x97\xe9\x88\xf6?'
p2030
tp2031
Rp2032
ag44
(g48
S'\xadhZ\t\x87\x1a\x07@'
p2033
tp2034
Rp2035
ag44
(g48
S'\xbe\xec\xbf;\x97\xea\xfd?'
p2036
tp2037
Rp2038
ag44
(g48
S'\xfc\x14\xdcy\xad7\xee?'
p2039
tp2040
Rp2041
ag44
(g48
S'VS7q\xcdj\xd4?'
p2042
tp2043
Rp2044
ag44
(g48
S'\xcc}y\xee#\xb2\xd4?'
p2045
tp2046
Rp2047
ag44
(g48
S'\xb28ZtLV\xfd?'
p2048
tp2049
Rp2050
ag44
(g48
S'\xba]Lm\xf1\xa5\xf9?'
p2051
tp2052
Rp2053
ag44
(g48
S'\xbe)>\x07Zb\xf2?'
p2054
tp2055
Rp2056
assS'c1355.isc'
p2057
(dp2058
g3
(lp2059
F9.5367431640625e-07
aF0.0
aF1.1920928955078125e-06
aF0.0
aF0.0
aF0.0
aF0.0
aF0.0
aF0.0
aF0.0
asg5
(lp2060
g7
(S'41.00000000000000000000000000'
p2061
tp2062
Rp2063
ag7
(S'41.00000000000000000000000000'
p2064
tp2065
Rp2066
ag7
(S'41.00000000000000000000000000'
p2067
tp2068
Rp2069
ag7
(S'41.00000000000000000000000000'
p2070
tp2071
Rp2072
ag7
(S'41.00000000000000000000000000'
p2073
tp2074
Rp2075
ag7
(S'41.00000000000000000000000000'
p2076
tp2077
Rp2078
ag7
(S'41.00000000000000000000000000'
p2079
tp2080
Rp2081
ag7
(S'41.00000000000000000000000000'
p2082
tp2083
Rp2084
ag7
(S'41.00000000000000000000000000'
p2085
tp2086
Rp2087
ag7
(S'41.00000000000000000000000000'
p2088
tp2089
Rp2090
asg38
(lp2091
F0.0
aF0.0
aF0.0
aF0.0
aF0.0
aF0.0
aF0.0
aF0.0
aF0.0
aF0.0
asg40
(lp2092
F0.25
aF0.1
aF0.25
aF0.25
aF0.25
aF0.25
aF0.25
aF0.25
aF0.1
aF0.25
asg42
(lp2093
g44
(g48
S'\x05\x1e55\xa0\xd9{@'
p2094
tp2095
Rp2096
ag44
(g48
S'\x05\x1e55\xa0\xd9{@'
p2097
tp2098
Rp2099
ag44
(g48
S'\xa8|z<\xde?|@'
p2100
tp2101
Rp2102
ag44
(g48
S'$l\x1e\xd1L\x12|@'
p2103
tp2104
Rp2105
ag44
(g48
S'\xf1\xb5\x1d\xa4\xe5I|@'
p2106
tp2107
Rp2108
ag44
(g48
S'q\xb9\x19\x08\x83#{@'
p2109
tp2110
Rp2111
ag44
(g48
S'\xb4\xee\xe9$\xa4&|@'
p2112
tp2113
Rp2114
ag44
(g48
S'\xf8<\x03\xb9\xd0b|@'
p2115
tp2116
Rp2117
ag44
(g48
S'\xce\x1e\x94\x9f\x83\xbf|@'
p2118
tp2119
Rp2120
ag44
(g48
S'\xd2Cs\xcf\xdfI{@'
p2121
tp2122
Rp2123
asg81
(lp2124
F8.626590013504028
aF9.418487071990967
aF9.8198561668396
aF9.002051830291748
aF9.407055139541626
aF8.845778942108154
aF9.132920980453491
aF8.711198091506958
aF8.712955951690674
aF9.013050079345703
asg83
(lp2125
g44
(g48
S'\xee\xe0k\xf8W\\d@'
p2126
tp2127
Rp2128
ag44
(g48
S'\xae\x95\x0c|\x02\x90a@'
p2129
tp2130
Rp2131
ag44
(g48
S'\x8d\xda\xe9\x93}\xfdc@'
p2132
tp2133
Rp2134
ag44
(g48
S'\x9e\xba\x03gBcb@'
p2135
tp2136
Rp2137
ag44
(g48
S'<\x8e\x02\xba\xf4<b@'
p2138
tp2139
Rp2140
ag44
(g48
S'\xcfr_\xfa\x1eQc@'
p2141
tp2142
Rp2143
ag44
(g48
S'^\xba\xa7U\xf9\xa2a@'
p2144
tp2145
Rp2146
ag44
(g48
S'.\x06\xf5\xf7\xd6Vb@'
p2147
tp2148
Rp2149
ag44
(g48
S'\x9f\xa7\xfa3\xd7\xa3`@'
p2150
tp2151
Rp2152
ag44
(g48
S'\xb9/\xa0\xb7\x1a?b@'
p2153
tp2154
Rp2155
asg115
(lp2156
g44
(g48
S'\x03G-\xee!\xeb(@'
p2157
tp2158
Rp2159
ag44
(g48
S'\x03G-\xee!\xeb(@'
p2160
tp2161
Rp2162
ag44
(g48
S'2\xfc\xf9\xa1w\xa4*@'
p2163
tp2164
Rp2165
ag44
(g48
S'\x08\xcf)B\n\xdc)@'
p2166
tp2167
Rp2168
ag44
(g48
S'\x16\xed\xfa\xa0i\xd1*@'
p2169
tp2170
Rp2171
ag44
(g48
S'f\xb6\x16\x0b\xbd\x1e&@'
p2172
tp2173
Rp2174
ag44
(g48
S'\xd0^_\xf5\xbf4*@'
p2175
tp2176
Rp2177
ag44
(g48
S'&\x04e\xefkB+@'
p2178
tp2179
Rp2180
ag44
(g48
S'2WN\xeeD\xf8,@'
p2181
tp2182
Rp2183
ag44
(g48
S'\xcd5\xf4\x84\xbe\xae&@'
p2184
tp2185
Rp2186
asg147
(lp2187
F0.0
aF0.0
aF0.0
aF0.0
aF0.0
aF0.0
aF0.0
aF0.0
aF0.0
aF0.0
asg149
(lp2188
F0.25
aF0.25
aF0.25
aF0.25
aF0.25
aF0.25
aF0.25
aF0.25
aF0.25
aF0.25
asg151
(lp2189
g44
(g48
S'+\xe5\x8a\xc6\x8f?2@'
p2190
tp2191
Rp2192
ag44
(g48
S'+\xe5\x8a\xc6\x8f?2@'
p2193
tp2194
Rp2195
ag44
(g48
S'+\xe5\x8a\xc6\x8f?2@'
p2196
tp2197
Rp2198
ag44
(g48
S'+\xe5\x8a\xc6\x8f?2@'
p2199
tp2200
Rp2201
ag44
(g48
S'+\xe5\x8a\xc6\x8f?2@'
p2202
tp2203
Rp2204
ag44
(g48
S'+\xe5\x8a\xc6\x8f?2@'
p2205
tp2206
Rp2207
ag44
(g48
S'+\xe5\x8a\xc6\x8f?2@'
p2208
tp2209
Rp2210
ag44
(g48
S'+\xe5\x8a\xc6\x8f?2@'
p2211
tp2212
Rp2213
ag44
(g48
S'+\xe5\x8a\xc6\x8f?2@'
p2214
tp2215
Rp2216
ag44
(g48
S'+\xe5\x8a\xc6\x8f?2@'
p2217
tp2218
Rp2219
asg183
(lp2220
F0.0
aF0.0
aF0.0
aF0.0
aF0.0
aF0.0
aF0.0
aF0.0
aF0.0
aF0.0
asg185
(lp2221
F19.05417649867649
aF13.45781767820926
aF18.313136685168715
aF15.108205795690417
aF14.808960318421306
aF16.9664997293537
aF13.605975943088076
aF15.01117717575243
aF11.61274683093177
aF14.825744702164755
asg187
(lp2222
g44
(g48
S'+\x93<gW\xd8y@'
p2223
tp2224
Rp2225
ag44
(g48
S'+\x93<gW\xd8y@'
p2226
tp2227
Rp2228
ag44
(g48
S'\xe1~\xd3:\xa6Oz@'
p2229
tp2230
Rp2231
ag44
(g48
S'\x1c\x1a1\x9dr\x1az@'
p2232
tp2233
Rp2234
ag44
(g48
S'\x8d`pZ][z@'
p2235
tp2236
Rp2237
ag44
(g48
S'P\x9a\xd0\xf7P\x04y@'
p2238
tp2239
Rp2240
ag44
(g48
S'\xbd\xd6\xc5\xce02z@'
p2241
tp2242
Rp2243
ag44
(g48
S'\xbc\x95\n\xc1{xz@'
p2244
tp2245
Rp2246
ag44
(g48
S'\xfc{\xab\x92\xf2\xe4z@'
p2247
tp2248
Rp2249
ag44
(g48
S'\x17\xea\xb1P\xef0y@'
p2250
tp2251
Rp2252
asg219
(lp2253
g44
(g48
S'ffffff]@'
p2254
tp2255
Rp2256
ag44
(g48
S'ffffff]@'
p2257
tp2258
Rp2259
ag44
(g48
S'ffffff^@'
p2260
tp2261
Rp2262
ag44
(g48
S'33333\xf3]@'
p2263
tp2264
Rp2265
ag44
(g48
S'\x00\x00\x00\x00\x00\x80^@'
p2266
tp2267
Rp2268
ag44
(g48
S'33333\xb3[@'
p2269
tp2270
Rp2271
ag44
(g48
S'fffff&^@'
p2272
tp2273
Rp2274
ag44
(g48
S'\x00\x00\x00\x00\x00\xc0^@'
p2275
tp2276
Rp2277
ag44
(g48
S'33333\xb3_@'
p2278
tp2279
Rp2280
ag44
(g48
S'\xcd\xcc\xcc\xcc\xcc\x0c\\@'
p2281
tp2282
Rp2283
asg251
(lp2284
F0.0
aF0.0
aF0.0
aF0.0
aF0.0
aF0.0
aF0.0
aF0.0
aF0.0
aF0.0
asg253
(lp2285
g44
(g48
S'\xb1;o\x1f\x00\xc9!@'
p2286
tp2287
Rp2288
ag44
(g48
S'\xb1;o\x1f\x00\xc9!@'
p2289
tp2290
Rp2291
ag44
(g48
S'\xee\x95\x85W\xff>#@'
p2292
tp2293
Rp2294
ag44
(g48
S'I\xab\xfaH\xdf\x94"@'
p2295
tp2296
Rp2297
ag44
(g48
S'\xed\xb0Z}5e#@'
p2298
tp2299
Rp2300
ag44
(g48
S'\x8f\xbe\x83P)\xde\x1e@'
p2301
tp2302
Rp2303
ag44
(g48
S'H\x8f\xd8I\x1d\xe0"@'
p2304
tp2305
Rp2306
ag44
(g48
S'A1\xd7,b\xc5#@'
p2307
tp2308
Rp2309
ag44
(g48
S'M\x14\xa0\x9cB;%@'
p2310
tp2311
Rp2312
ag44
(g48
S'\x1b\xe4\x0bT\t\xcf\x1f@'
p2313
tp2314
Rp2315
asg285
(lp2316
g44
(g48
S'h\x9b^"\xf5\xfb,@'
p2317
tp2318
Rp2319
ag44
(g48
S'\x0e1yB\xeb\xe5!@'
p2320
tp2321
Rp2322
ag44
(g48
S'\xe4\x81V\x90\x8b\x80+@'
p2323
tp2324
Rp2325
ag44
(g48
S'(\x02\xbe\xdc\x9e\x17%@'
p2326
tp2327
Rp2328
ag44
(g48
S'\x9eP\xb9(h~$@'
p2329
tp2330
Rp2331
ag44
(g48
S'\xec\xe2,*\x11\xcf(@'
p2332
tp2333
Rp2334
ag44
(g48
S'&\x01N\x97z\x16"@'
p2335
tp2336
Rp2337
ag44
(g48
S'h0\x83 \xf1\xe5$@'
p2338
tp2339
Rp2340
ag44
(g48
S'\\\xe7\xc2h\x0cl @'
p2341
tp2342
Rp2343
ag44
(g48
S'\x92\xd6/\x1f\x00\x87$@'
p2344
tp2345
Rp2346
assS'sat-grid-pbl-0015.cnf'
p2347
(dp2348
g3
(lp2349
F9.5367431640625e-07
aF0.0
aF0.0
aF0.0
aF1.1920928955078125e-06
aF0.0
aF0.0
aF9.5367431640625e-07
aF0.0
aF9.5367431640625e-07
asg5
(lp2350
g7
(S'180.9753008001849739336326952'
p2351
tp2352
Rp2353
ag7
(S'180.9753008001849739336326952'
p2354
tp2355
Rp2356
ag7
(S'180.9753008001849739336326952'
p2357
tp2358
Rp2359
ag7
(S'180.9753008001849739336326952'
p2360
tp2361
Rp2362
ag7
(S'180.9753008001849739336326952'
p2363
tp2364
Rp2365
ag7
(S'180.9753008001849739336326952'
p2366
tp2367
Rp2368
ag7
(S'180.9753008001849739336326952'
p2369
tp2370
Rp2371
ag7
(S'180.9753008001849739336326952'
p2372
tp2373
Rp2374
ag7
(S'180.9753008001849739336326952'
p2375
tp2376
Rp2377
ag7
(S'180.9753008001849739336326952'
p2378
tp2379
Rp2380
asg38
(lp2381
F0.0
aF0.0
aF0.0
aF0.0
aF0.0
aF0.0
aF0.0
aF0.0
aF0.0
aF0.0
asg40
(lp2382
F0.5
aF0.5
aF0.5
aF0.5
aF0.5
aF0.5
aF0.5
aF0.5
aF0.5
aF0.5
asg42
(lp2383
g44
(g48
S'\x00\x00\x00\x00\x00\x00n@'
p2384
tp2385
Rp2386
ag44
(g48
S'\x00\x00\x00\x00\x00\x00n@'
p2387
tp2388
Rp2389
ag44
(g48
S'\x00\x00\x00\x00\x00\x00n@'
p2390
tp2391
Rp2392
ag44
(g48
S'\x00\x00\x00\x00\x00\x00n@'
p2393
tp2394
Rp2395
ag44
(g48
S'\x00\x00\x00\x00\x00\x00n@'
p2396
tp2397
Rp2398
ag44
(g48
S'\x00\x00\x00\x00\x00\x00n@'
p2399
tp2400
Rp2401
ag44
(g48
S'\x00\x00\x00\x00\x00\x00n@'
p2402
tp2403
Rp2404
ag44
(g48
S'\x00\x00\x00\x00\x00\x00n@'
p2405
tp2406
Rp2407
ag44
(g48
S'\x00\x00\x00\x00\x00\x00n@'
p2408
tp2409
Rp2410
ag44
(g48
S'\x00\x00\x00\x00\x00\x00n@'
p2411
tp2412
Rp2413
asg81
(lp2414
F0.17297101020812988
aF0.1677861213684082
aF0.16589903831481934
aF0.17543911933898926
aF0.16817307472229004
aF0.17221999168395996
aF0.16625595092773438
aF0.1558678150177002
aF0.1542978286743164
aF0.16315197944641113
asg83
(lp2415
g44
(g48
S'0c\x13X7}g@'
p2416
tp2417
Rp2418
ag44
(g48
S'\x0f\xa0\x89\xa6N0g@'
p2419
tp2420
Rp2421
ag44
(g48
S'\xec\xdb;\x06Pbg@'
p2422
tp2423
Rp2424
ag44
(g48
S'o\xb6z\x18\xe6\x93g@'
p2425
tp2426
Rp2427
ag44
(g48
S'\xb21Ll\x1b\xedg@'
p2428
tp2429
Rp2430
ag44
(g48
S'\xd6\xa6\xce\xc7p\xa1g@'
p2431
tp2432
Rp2433
ag44
(g48
S'o\x84\xa3.\xa0\x8eg@'
p2434
tp2435
Rp2436
ag44
(g48
S'\xd3D\xda\xf3\xa0Xg@'
p2437
tp2438
Rp2439
ag44
(g48
S'${\xc3\xa3"\xcdf@'
p2440
tp2441
Rp2442
ag44
(g48
S'\x9b:\x8eo]\x91g@'
p2443
tp2444
Rp2445
asg115
(lp2446
g44
(g48
S'\x8a\xb3\x0f\x9fa\x0fP@'
p2447
tp2448
Rp2449
ag44
(g48
S'""""""P@'
p2450
tp2451
Rp2452
ag44
(g48
S'\xfb\xa9\xf1\xd2M\xd2M@'
p2453
tp2454
Rp2455
ag44
(g48
S'\xaa8\xfb\xf0\x19dP@'
p2456
tp2457
Rp2458
ag44
(g48
S'\xda\x87\xcf\xb0+\x9cO@'
p2459
tp2460
Rp2461
ag44
(g48
S'\xed\n\x90{\xcd\xf5N@'
p2462
tp2463
Rp2464
ag44
(g48
S'\x9b\x99\x99\x99\x99uN@'
p2465
tp2466
Rp2467
ag44
(g48
S'\xb3\x0f\x9faW>P@'
p2468
tp2469
Rp2470
ag44
(g48
S'\x9b\x99\x99\x99\x99uN@'
p2471
tp2472
Rp2473
ag44
(g48
S'\x15g\x1f>\xc3\xaeO@'
p2474
tp2475
Rp2476
asg147
(lp2477
F0.0
aF0.0
aF0.0
aF0.0
aF0.0
aF0.0
aF0.0
aF0.0
aF0.0
aF0.0
asg149
(lp2478
F0.5
aF0.5
aF0.5
aF0.5
aF0.5
aF0.5
aF0.5
aF0.5
aF0.5
aF0.5
asg151
(lp2479
g44
(g48
S'\x00\x00\x00\x00\x00\x00(@'
p2480
tp2481
Rp2482
ag44
(g48
S'\x00\x00\x00\x00\x00\x00(@'
p2483
tp2484
Rp2485
ag44
(g48
S'\x00\x00\x00\x00\x00\x00(@'
p2486
tp2487
Rp2488
ag44
(g48
S'\x00\x00\x00\x00\x00\x00(@'
p2489
tp2490
Rp2491
ag44
(g48
S'\x00\x00\x00\x00\x00\x00(@'
p2492
tp2493
Rp2494
ag44
(g48
S'\x00\x00\x00\x00\x00\x00(@'
p2495
tp2496
Rp2497
ag44
(g48
S'\x00\x00\x00\x00\x00\x00(@'
p2498
tp2499
Rp2500
ag44
(g48
S'\x00\x00\x00\x00\x00\x00(@'
p2501
tp2502
Rp2503
ag44
(g48
S'\x00\x00\x00\x00\x00\x00(@'
p2504
tp2505
Rp2506
ag44
(g48
S'\x00\x00\x00\x00\x00\x00(@'
p2507
tp2508
Rp2509
asg183
(lp2510
F0.0
aF0.0
aF0.0
aF0.0
aF0.0
aF0.0
aF0.0
aF0.0
aF0.0
aF0.0
asg185
(lp2511
F52.12044057876801
aF50.91873809412844
aF51.70007194504291
aF52.47485656855177
aF53.86873641566993
aF52.68644622153997
aF52.39246439082534
aF51.548761410276754
aF49.36917688588011
aF52.43526551273787
asg187
(lp2512
g44
(g48
S'\x00\x00\x00\x00\x00\x00n@'
p2513
tp2514
Rp2515
ag44
(g48
S'\x00\x00\x00\x00\x00\x00n@'
p2516
tp2517
Rp2518
ag44
(g48
S'\x00\x00\x00\x00\x00\x00n@'
p2519
tp2520
Rp2521
ag44
(g48
S'\x00\x00\x00\x00\x00\x00n@'
p2522
tp2523
Rp2524
ag44
(g48
S'\x00\x00\x00\x00\x00\x00n@'
p2525
tp2526
Rp2527
ag44
(g48
S'\x00\x00\x00\x00\x00\x00n@'
p2528
tp2529
Rp2530
ag44
(g48
S'\x00\x00\x00\x00\x00\x00n@'
p2531
tp2532
Rp2533
ag44
(g48
S'\x00\x00\x00\x00\x00\x00n@'
p2534
tp2535
Rp2536
ag44
(g48
S'\x00\x00\x00\x00\x00\x00n@'
p2537
tp2538
Rp2539
ag44
(g48
S'\x00\x00\x00\x00\x00\x00n@'
p2540
tp2541
Rp2542
asg219
(lp2543
g44
(g48
S'33333\xf3e@'
p2544
tp2545
Rp2546
ag44
(g48
S'\x00\x00\x00\x00\x00\x00f@'
p2547
tp2548
Rp2549
ag44
(g48
S'fffff&e@'
p2550
tp2551
Rp2552
ag44
(g48
S'\xcd\xcc\xcc\xcc\xcc,f@'
p2553
tp2554
Rp2555
ag44
(g48
S'fffff\xc6e@'
p2556
tp2557
Rp2558
ag44
(g48
S'\xcd\xcc\xcc\xcc\xcc\x8ce@'
p2559
tp2560
Rp2561
ag44
(g48
S'\x00\x00\x00\x00\x00`e@'
p2562
tp2563
Rp2564
ag44
(g48
S'33333\x13f@'
p2565
tp2566
Rp2567
ag44
(g48
S'\x00\x00\x00\x00\x00`e@'
p2568
tp2569
Rp2570
ag44
(g48
S'\xcd\xcc\xcc\xcc\xcc\xcce@'
p2571
tp2572
Rp2573
asg251
(lp2574
F0.0
aF0.0
aF0.0
aF0.0
aF0.0
aF0.0
aF0.0
aF0.0
aF0.0
aF0.0
asg253
(lp2575
g44
(g48
S'\xd7\\H\x9aR\xe1K@'
p2576
tp2577
Rp2578
ag44
(g48
S'DDDDD\x04L@'
p2579
tp2580
Rp2581
ag44
(g48
S'\xe5\xfb\xa9\xf1\xd2\xbdI@'
p2582
tp2583
Rp2584
ag44
(g48
S'+\x15g\x1f>\x7fL@'
p2585
tp2586
Rp2587
ag44
(g48
S'\xc4\xd9\x87\xcf\xb0gK@'
p2588
tp2589
Rp2590
ag44
(g48
S'\xc4\xae\x00\xb9\xd7\xccJ@'
p2591
tp2592
Rp2593
ag44
(g48
S'\x9a\x99\x99\x99\x99UJ@'
p2594
tp2595
Rp2596
ag44
(g48
S'\xc4\xae\x00\xb9\xd78L@'
p2597
tp2598
Rp2599
ag44
(g48
S'\x9a\x99\x99\x99\x99UJ@'
p2600
tp2601
Rp2602
ag44
(g48
S' >\xc3\xae\x00yK@'
p2603
tp2604
Rp2605
asg285
(lp2606
g44
(g48
S'\xc0u\xcd\x98j\x0fG@'
p2607
tp2608
Rp2609
ag44
(g48
S'~\xef\xb95\x99uF@'
p2610
tp2611
Rp2612
ag44
(g48
S'8g\x1e\xf5\x9b\xd9F@'
p2613
tp2614
Rp2615
ag44
(g48
S'>\x1c\x9c\x19\xc8<G@'
p2616
tp2617
Rp2618
ag44
(g48
S'\xc4\x12?\xc12\xefG@'
p2619
tp2620
Rp2621
ag44
(g48
S'\x0c\xfdCx\xddWG@'
p2622
tp2623
Rp2624
ag44
(g48
S'>\xb8\xedE<2G@'
p2625
tp2626
Rp2627
ag44
(g48
S'\x069[\xd0=\xc6F@'
p2628
tp2629
Rp2630
ag44
(g48
S'\xa8\xa5-0A\xafE@'
p2631
tp2632
Rp2633
ag44
(g48
S'\x96$\xc3\xc7\xb67G@'
p2634
tp2635
Rp2636
assS'sat-grid-pbl-0025.cnf'
p2637
(dp2638
g3
(lp2639
F0.0
aF0.0
aF0.0
aF0.0
aF0.0
aF9.5367431640625e-07
aF0.0
aF0.0
aF0.0
aF0.0
asg5
(lp2640
g7
(S'502.4632815084344235960960599'
p2641
tp2642
Rp2643
ag7
(S'502.4632815084344235960960599'
p2644
tp2645
Rp2646
ag7
(S'502.4632815084344235960960599'
p2647
tp2648
Rp2649
ag7
(S'502.4632815084344235960960599'
p2650
tp2651
Rp2652
ag7
(S'502.4632815084344235960960599'
p2653
tp2654
Rp2655
ag7
(S'502.4632815084344235960960599'
p2656
tp2657
Rp2658
ag7
(S'502.4632815084344235960960599'
p2659
tp2660
Rp2661
ag7
(S'502.4632815084344235960960599'
p2662
tp2663
Rp2664
ag7
(S'502.4632815084344235960960599'
p2665
tp2666
Rp2667
ag7
(S'502.4632815084344235960960599'
p2668
tp2669
Rp2670
asg38
(lp2671
F0.0
aF0.0
aF0.0
aF0.0
aF0.0
aF0.0
aF0.0
aF0.0
aF0.0
aF0.0
asg40
(lp2672
F0.5
aF0.5
aF0.5
aF0.5
aF0.5
aF0.5
aF0.5
aF0.5
aF0.5
aF0.5
asg42
(lp2673
g44
(g48
S'\x00\x00\x00\x00\x00P\x84@'
p2674
tp2675
Rp2676
ag44
(g48
S'\x00\x00\x00\x00\x00P\x84@'
p2677
tp2678
Rp2679
ag44
(g48
S'\x00\x00\x00\x00\x00P\x84@'
p2680
tp2681
Rp2682
ag44
(g48
S'\x00\x00\x00\x00\x00P\x84@'
p2683
tp2684
Rp2685
ag44
(g48
S'\x00\x00\x00\x00\x00P\x84@'
p2686
tp2687
Rp2688
ag44
(g48
S'\x00\x00\x00\x00\x00P\x84@'
p2689
tp2690
Rp2691
ag44
(g48
S'\x00\x00\x00\x00\x00P\x84@'
p2692
tp2693
Rp2694
ag44
(g48
S'\x00\x00\x00\x00\x00P\x84@'
p2695
tp2696
Rp2697
ag44
(g48
S'\x00\x00\x00\x00\x00P\x84@'
p2698
tp2699
Rp2700
ag44
(g48
S'\x00\x00\x00\x00\x00P\x84@'
p2701
tp2702
Rp2703
asg81
(lp2704
F1.3367180824279785
aF1.2343411445617676
aF1.0002150535583496
aF1.4611740112304688
aF1.8460559844970703
aF1.7131969928741455
aF1.5691759586334229
aF1.9328529834747314
aF1.6448719501495361
aF1.6260528564453125
asg83
(lp2705
g44
(g48
S'\xcaJS\x85\x849\x80@'
p2706
tp2707
Rp2708
ag44
(g48
S'\x9e/2\xf6/\x92\x80@'
p2709
tp2710
Rp2711
ag44
(g48
S'\xa0B\xee\xf9\x07M\x80@'
p2712
tp2713
Rp2714
ag44
(g48
S'|}\xae`\xebU\x80@'
p2715
tp2716
Rp2717
ag44
(g48
S'\xa4V\x9e\r\xbdg\x80@'
p2718
tp2719
Rp2720
ag44
(g48
S'|\xb5\xb8\xa9\xa1[\x80@'
p2721
tp2722
Rp2723
ag44
(g48
S'N\xfdN{l\x97\x80@'
p2724
tp2725
Rp2726
ag44
(g48
S'V\xe2\xdb\x88\x17\t\x80@'
p2727
tp2728
Rp2729
ag44
(g48
S'q-\xde=\xf9S\x80@'
p2730
tp2731
Rp2732
ag44
(g48
S'\xe4\x92WFNj\x80@'
p2733
tp2734
Rp2735
asg115
(lp2736
g44
(g48
S']\x15b#a\x99f@'
p2737
tp2738
Rp2739
ag44
(g48
S'\x84Fj\xcf}[f@'
p2740
tp2741
Rp2742
ag44
(g48
S'\x1f-\x88vf\xdcf@'
p2743
tp2744
Rp2745
ag44
(g48
S'\x1f-\x88vf\xdcf@'
p2746
tp2747
Rp2748
ag44
(g48
S'__1\xf5\xa2$g@'
p2749
tp2750
Rp2751
ag44
(g48
S']\x15b#a\x99f@'
p2752
tp2753
Rp2754
ag44
(g48
S'\xfagL\x93\x01\xcef@'
p2755
tp2756
Rp2757
ag44
(g48
S'L\x83\xad\xc1AMf@'
p2758
tp2759
Rp2760
ag44
(g48
S'\x06\x12\x14?\xc6|f@'
p2761
tp2762
Rp2763
ag44
(g48
S'\xf3]b\xe60Pg@'
p2764
tp2765
Rp2766
asg147
(lp2767
F0.0
aF0.0
aF0.0
aF0.0
aF0.0
aF0.0
aF0.0
aF0.0
aF0.0
aF0.0
asg149
(lp2768
F0.5
aF0.5
aF0.5
aF0.5
aF0.5
aF0.5
aF0.5
aF0.5
aF0.5
aF0.5
asg151
(lp2769
g44
(g48
S'wl\xb5L\x98\xbf3@'
p2770
tp2771
Rp2772
ag44
(g48
S'wl\xb5L\x98\xbf3@'
p2773
tp2774
Rp2775
ag44
(g48
S'wl\xb5L\x98\xbf3@'
p2776
tp2777
Rp2778
ag44
(g48
S'wl\xb5L\x98\xbf3@'
p2779
tp2780
Rp2781
ag44
(g48
S'wl\xb5L\x98\xbf3@'
p2782
tp2783
Rp2784
ag44
(g48
S'wl\xb5L\x98\xbf3@'
p2785
tp2786
Rp2787
ag44
(g48
S'wl\xb5L\x98\xbf3@'
p2788
tp2789
Rp2790
ag44
(g48
S'wl\xb5L\x98\xbf3@'
p2791
tp2792
Rp2793
ag44
(g48
S'wl\xb5L\x98\xbf3@'
p2794
tp2795
Rp2796
ag44
(g48
S'wl\xb5L\x98\xbf3@'
p2797
tp2798
Rp2799
asg183
(lp2800
F0.0
aF0.0
aF0.0
aF0.0
aF0.0
aF0.0
aF0.0
aF0.0
aF0.0
aF0.0
asg185
(lp2801
F146.28885150348884
aF151.8307071922316
aF147.50844512888574
aF148.06396304165327
aF149.1776533577651
aF148.42096629169617
aF152.15798257571697
aF143.26224354523157
aF147.94234780945135
aF149.3381078442073
asg187
(lp2802
g44
(g48
S'\x00\x00\x00\x00\x00P\x84@'
p2803
tp2804
Rp2805
ag44
(g48
S'\x00\x00\x00\x00\x00P\x84@'
p2806
tp2807
Rp2808
ag44
(g48
S'\x00\x00\x00\x00\x00P\x84@'
p2809
tp2810
Rp2811
ag44
(g48
S'\x00\x00\x00\x00\x00P\x84@'
p2812
tp2813
Rp2814
ag44
(g48
S'\x00\x00\x00\x00\x00P\x84@'
p2815
tp2816
Rp2817
ag44
(g48
S'\x00\x00\x00\x00\x00P\x84@'
p2818
tp2819
Rp2820
ag44
(g48
S'\x00\x00\x00\x00\x00P\x84@'
p2821
tp2822
Rp2823
ag44
(g48
S'\x00\x00\x00\x00\x00P\x84@'
p2824
tp2825
Rp2826
ag44
(g48
S'\x00\x00\x00\x00\x00P\x84@'
p2827
tp2828
Rp2829
ag44
(g48
S'\x00\x00\x00\x00\x00P\x84@'
p2830
tp2831
Rp2832
asg219
(lp2833
g44
(g48
S'\xcd\xcc\xcc\xcc\xccL~@'
p2834
tp2835
Rp2836
ag44
(g48
S'33333#~@'
p2837
tp2838
Rp2839
ag44
(g48
S'\x9a\x99\x99\x99\x99y~@'
p2840
tp2841
Rp2842
ag44
(g48
S'\x9a\x99\x99\x99\x99y~@'
p2843
tp2844
Rp2845
ag44
(g48
S'\x9a\x99\x99\x99\x99\xa9~@'
p2846
tp2847
Rp2848
ag44
(g48
S'\xcd\xcc\xcc\xcc\xccL~@'
p2849
tp2850
Rp2851
ag44
(g48
S'\x00\x00\x00\x00\x00p~@'
p2852
tp2853
Rp2854
ag44
(g48
S'\x9a\x99\x99\x99\x99\x19~@'
p2855
tp2856
Rp2857
ag44
(g48
S'\x9a\x99\x99\x99\x999~@'
p2858
tp2859
Rp2860
ag44
(g48
S'fffff\xc6~@'
p2861
tp2862
Rp2863
asg251
(lp2864
F0.0
aF0.0
aF0.0
aF0.0
aF0.0
aF0.0
aF0.0
aF0.0
aF0.0
aF0.0
asg253
(lp2865
g44
(g48
S'\xb3\x97!w\xa4\xcbd@'
p2866
tp2867
Rp2868
ag44
(g48
S'\x7f\xc7\xe5@H\x90d@'
p2869
tp2870
Rp2871
ag44
(g48
S'L\xd8U\xe5\xf0\x0be@'
p2872
tp2873
Rp2874
ag44
(g48
S'L\xd8U\xe5\xf0\x0be@'
p2875
tp2876
Rp2877
ag44
(g48
S'\xe3Z\xd7\xb7BQe@'
p2878
tp2879
Rp2880
ag44
(g48
S'\xb3\x97!w\xa4\xcbd@'
p2881
tp2882
Rp2883
ag44
(g48
S'\xb0\x9c\xbbW!\xfed@'
p2884
tp2885
Rp2886
ag44
(g48
S'\xcf\x8d\xca\x88\xa1\x82d@'
p2887
tp2888
Rp2889
ag44
(g48
S'm\xa7\x16>4\xb0d@'
p2890
tp2891
Rp2892
ag44
(g48
S'\xdd\xbc#\xa8\x10{e@'
p2893
tp2894
Rp2895
asg285
(lp2896
g44
(g48
S'\x8b\xc5\xb6\xc0D\ra@'
p2897
tp2898
Rp2899
ag44
(g48
S'3\x8ft\xa2\x9b\xbea@'
p2900
tp2901
Rp2902
ag44
(g48
S'7\xb5\xec\xa9K4a@'
p2903
tp2904
Rp2905
ag44
(g48
S'\xef*mw\x12Fa@'
p2906
tp2907
Rp2908
ag44
(g48
S'?\xddL\xd1\xb5ia@'
p2909
tp2910
Rp2911
ag44
(g48
S'\xef\x9a\x81\t\x7fQa@'
p2912
tp2913
Rp2914
ag44
(g48
S'\x93*\xae\xac\x14\xc9a@'
p2915
tp2916
Rp2917
ag44
(g48
S'\xa3\xf4\xc7\xc7j\xac`@'
p2918
tp2919
Rp2920
ag44
(g48
S'\xd9\x8a\xcc1.Ba@'
p2921
tp2922
Rp2923
ag44
(g48
S'\xbfU\xbfB\xd8na@'
p2924
tp2925
Rp2926
assS'c499.isc'
p2927
(dp2928
g3
(lp2929
F9.5367431640625e-07
aF0.0
aF0.0
aF0.0
aF9.5367431640625e-07
aF0.0
aF0.0
aF0.0
aF0.0
aF0.0
asg5
(lp2930
g7
(S'41.00000000000000000000000000'
p2931
tp2932
Rp2933
ag7
(S'41.00000000000000000000000000'
p2934
tp2935
Rp2936
ag7
(S'41.00000000000000000000000000'
p2937
tp2938
Rp2939
ag7
(S'41.00000000000000000000000000'
p2940
tp2941
Rp2942
ag7
(S'41.00000000000000000000000000'
p2943
tp2944
Rp2945
ag7
(S'41.00000000000000000000000000'
p2946
tp2947
Rp2948
ag7
(S'41.00000000000000000000000000'
p2949
tp2950
Rp2951
ag7
(S'41.00000000000000000000000000'
p2952
tp2953
Rp2954
ag7
(S'41.00000000000000000000000000'
p2955
tp2956
Rp2957
ag7
(S'41.00000000000000000000000000'
p2958
tp2959
Rp2960
asg38
(lp2961
F0.0
aF0.0
aF0.0
aF0.0
aF0.0
aF0.0
aF0.0
aF0.0
aF0.0
aF0.0
asg40
(lp2962
F0.25
aF0.25
aF0.25
aF0.25
aF0.25
aF0.25
aF0.25
aF0.25
aF0.25
aF0.25
asg42
(lp2963
g44
(g48
S'\x94\x05i\x92\xfa\xf2l@'
p2964
tp2965
Rp2966
ag44
(g48
S'\x14I\xb2\xc1\xf7\xd2m@'
p2967
tp2968
Rp2969
ag44
(g48
S'\r\xb3 \x18\xa3\\m@'
p2970
tp2971
Rp2972
ag44
(g48
S'\xa1/\xadR&Hm@'
p2973
tp2974
Rp2975
ag44
(g48
S'\xc8]\x06\x10/\x8em@'
p2976
tp2977
Rp2978
ag44
(g48
S'R)\x92Dy;m@'
p2979
tp2980
Rp2981
ag44
(g48
S'\r+\xc6\xe3\xe8\x86m@'
p2982
tp2983
Rp2984
ag44
(g48
S'\xb8\xe6\xee\xb7\xdb\x98m@'
p2985
tp2986
Rp2987
ag44
(g48
S'\x05\xbc\xc6[\x82.m@'
p2988
tp2989
Rp2990
ag44
(g48
S'v\xd5\xecjA!m@'
p2991
tp2992
Rp2993
asg81
(lp2994
F4.098355054855347
aF3.4597370624542236
aF4.021903038024902
aF4.14371919631958
aF4.3191609382629395
aF4.347382068634033
aF4.008234024047852
aF4.471125841140747
aF4.253097057342529
aF4.187050104141235
asg83
(lp2995
g44
(g48
S'0-\xa5ze\x83Z@'
p2996
tp2997
Rp2998
ag44
(g48
S'Hy\x17\xf3\xdceZ@'
p2999
tp3000
Rp3001
ag44
(g48
S'2\x1dh\x9d\xe2\xca[@'
p3002
tp3003
Rp3004
ag44
(g48
S'\xd6\xb8\xd9\x9c\x9e\xd2Y@'
p3005
tp3006
Rp3007
ag44
(g48
S'\x9e\xf4,\xd2\x11S[@'
p3008
tp3009
Rp3010
ag44
(g48
S'Z\xaa\x17\xad\xe4\xd9Z@'
p3011
tp3012
Rp3013
ag44
(g48
S'q\xcbA\x0fy#Y@'
p3014
tp3015
Rp3016
ag44
(g48
S'\x0c\x10Za\xc3\nY@'
p3017
tp3018
Rp3019
ag44
(g48
S'\xf0\xae\xda\\7\xf0Z@'
p3020
tp3021
Rp3022
ag44
(g48
S'\x8ad<\xad\xb1\x84Z@'
p3023
tp3024
Rp3025
asg115
(lp3026
g44
(g48
S'\xfb\x99\x8e\xd8wl)@'
p3027
tp3028
Rp3029
ag44
(g48
S'\x08\x8c?\x94\xa6\xbd0@'
p3030
tp3031
Rp3032
ag44
(g48
S'/\xcd\xc1\x0b\xab\x9f,@'
p3033
tp3034
Rp3035
ag44
(g48
S'|\x80U\x89\xff\xf0+@'
p3036
tp3037
Rp3038
ag44
(g48
S'5\xb5\\\xb8\xabo.@'
p3039
tp3040
Rp3041
ag44
(g48
S'C\x8ep#5\x89+@'
p3042
tp3043
Rp3044
ag44
(g48
S"\x8aN\xa8\xd2['.@"
p3045
tp3046
Rp3047
ag44
(g48
S'\x8d\xd4$b\xc5\xdc.@'
p3048
tp3049
Rp3050
ag44
(g48
S'~\xa2\xd0\xeb,"+@'
p3051
tp3052
Rp3053
ag44
(g48
S'*\xbdu\xe2\xe6\xbb*@'
p3054
tp3055
Rp3056
asg147
(lp3057
F0.0
aF0.0
aF0.0
aF0.0
aF0.0
aF0.0
aF0.0
aF0.0
aF0.0
aF0.0
asg149
(lp3058
F0.25
aF0.25
aF0.25
aF0.25
aF0.25
aF0.25
aF0.25
aF0.25
aF0.25
aF0.25
asg151
(lp3059
g44
(g48
S'\xb0\xf0\xd9\xdeG&(@'
p3060
tp3061
Rp3062
ag44
(g48
S'\xb0\xf0\xd9\xdeG&(@'
p3063
tp3064
Rp3065
ag44
(g48
S'\xb0\xf0\xd9\xdeG&(@'
p3066
tp3067
Rp3068
ag44
(g48
S'\xb0\xf0\xd9\xdeG&(@'
p3069
tp3070
Rp3071
ag44
(g48
S'\xb0\xf0\xd9\xdeG&(@'
p3072
tp3073
Rp3074
ag44
(g48
S'\xb0\xf0\xd9\xdeG&(@'
p3075
tp3076
Rp3077
ag44
(g48
S'\xb0\xf0\xd9\xdeG&(@'
p3078
tp3079
Rp3080
ag44
(g48
S'\xb0\xf0\xd9\xdeG&(@'
p3081
tp3082
Rp3083
ag44
(g48
S'\xb0\xf0\xd9\xdeG&(@'
p3084
tp3085
Rp3086
ag44
(g48
S'\xb0\xf0\xd9\xdeG&(@'
p3087
tp3088
Rp3089
asg183
(lp3090
F0.0
aF0.0
aF0.0
aF0.0
aF0.0
aF0.0
aF0.0
aF0.0
aF0.0
aF0.0
asg185
(lp3091
F17.026521739944524
aF16.911157215012235
aF18.30577491052269
aF16.335987279713212
aF17.837745218880887
aF17.36440011304423
aF15.65182051488965
aF15.555298308511478
aF17.451599309966337
aF17.031590673353282
asg187
(lp3092
g44
(g48
S'\xee\xcdJ\xced\x95k@'
p3093
tp3094
Rp3095
ag44
(g48
S'\xba\xba\x1br\x84\xe7l@'
p3096
tp3097
Rp3098
ag44
(g48
S'\xf1t\x1f\xa2\x04/l@'
p3099
tp3100
Rp3101
ag44
(g48
S'\xe9\xb6l\t\xa2\x10l@'
p3102
tp3103
Rp3104
ag44
(g48
S'\x04\xfeA7\x16zl@'
p3105
tp3106
Rp3107
ag44
(g48
S'\x89\xe7U\xca\xfe\xfdk@'
p3108
tp3109
Rp3110
ag44
(g48
S'\xecm=\xc2\xe7nl@'
p3111
tp3112
Rp3113
ag44
(g48
S'E/\xe1\x1c\x9c\x8al@'
p3114
tp3115
Rp3116
ag44
(g48
S'\xc4s\xea"\r\xebk@'
p3117
tp3118
Rp3119
ag44
(g48
S'<a\xd4\xc9\xcc\xd7k@'
p3120
tp3121
Rp3122
asg219
(lp3123
g44
(g48
S'fffff\xa6S@'
p3124
tp3125
Rp3126
ag44
(g48
S'\xcd\xcc\xcc\xcc\xcc\x8cV@'
p3127
tp3128
Rp3129
ag44
(g48
S'\x9a\x99\x99\x99\x99\xd9T@'
p3130
tp3131
Rp3132
ag44
(g48
S'\x9a\x99\x99\x99\x99\x99T@'
p3133
tp3134
Rp3135
ag44
(g48
S'\x00\x00\x00\x00\x00\x80U@'
p3136
tp3137
Rp3138
ag44
(g48
S'33333sT@'
p3139
tp3140
Rp3141
ag44
(g48
S'ffffffU@'
p3142
tp3143
Rp3144
ag44
(g48
S'fffff\xa6U@'
p3145
tp3146
Rp3147
ag44
(g48
S'\xcd\xcc\xcc\xcc\xccLT@'
p3148
tp3149
Rp3150
ag44
(g48
S'fffff&T@'
p3151
tp3152
Rp3153
asg251
(lp3154
F0.0
aF0.0
aF0.0
aF0.0
aF0.0
aF0.0
aF0.0
aF0.0
aF0.0
aF0.0
asg253
(lp3155
g44
(g48
S'C\xf4\r\x12^6"@'
p3156
tp3157
Rp3158
ag44
(g48
S'\xb3g\xacY\x14\x1e)@'
p3159
tp3160
Rp3161
ag44
(g48
S'N\xb09\xc6r\xef$@'
p3162
tp3163
Rp3164
ag44
(g48
S'\xc5\xf1\xeeH8Z$@'
p3165
tp3166
Rp3167
ag44
(g48
S'\x1c\x8d\xb0\x98M}&@'
p3168
tp3169
Rp3170
ag44
(g48
S'q\xee\xea\xb2\xb1\x01$@'
p3171
tp3172
Rp3173
ag44
(g48
S'\xb7\xc5<\xe8*?&@'
p3174
tp3175
Rp3176
ag44
(g48
S'\x90\xbd\x97r#\xdb&@'
p3177
tp3178
Rp3179
ag44
(g48
S'\x90\xf1+K\xed\xa9#@'
p3180
tp3181
Rp3182
ag44
(g48
S'"\xfb\xb1\x11\xebR#@'
p3183
tp3184
Rp3185
asg285
(lp3186
g44
(g48
S'\x8a\xe74J\x02\x04,@'
p3187
tp3188
Rp3189
ag44
(g48
S'\xba\x7f\x19;\xf1\xc8+@'
p3190
tp3191
Rp3192
ag44
(g48
S'\x8e\xc7\xba\x8f\xfc\x92.@'
p3193
tp3194
Rp3195
ag44
(g48
S'\xd6\xfe\x9d\x8et\xa2*@'
p3196
tp3197
Rp3198
ag44
(g48
S'fvD\xf9Z\xa3-@'
p3199
tp3200
Rp3201
ag44
(g48
S'\xde\xe1\x19\xaf\x00\xb1,@'
p3202
tp3203
Rp3204
ag44
(g48
S'\x0c$ns)D)@'
p3205
tp3206
Rp3207
ag44
(g48
S'B\xad\x9e\x17\xbe\x12)@'
p3208
tp3209
Rp3210
ag44
(g48
S'\n\xeb\x9f\x0e\xa6\xdd,@'
p3211
tp3212
Rp3213
ag44
(g48
S'>Vc\xaf\x9a\x06,@'
p3214
tp3215
Rp3216
assS'c432.isc'
p3217
(dp3218
g3
(lp3219
F0.0
aF9.5367431640625e-07
aF9.5367431640625e-07
aF0.0
aF0.0
aF0.0
aF9.5367431640625e-07
aF9.5367431640625e-07
aF0.0
aF0.0
asg5
(lp3220
g7
(S'35.99999999999999999999999999'
p3221
tp3222
Rp3223
ag7
(S'35.99999999999999999999999999'
p3224
tp3225
Rp3226
ag7
(S'35.99999999999999999999999999'
p3227
tp3228
Rp3229
ag7
(S'35.99999999999999999999999999'
p3230
tp3231
Rp3232
ag7
(S'35.99999999999999999999999999'
p3233
tp3234
Rp3235
ag7
(S'35.99999999999999999999999999'
p3236
tp3237
Rp3238
ag7
(S'35.99999999999999999999999999'
p3239
tp3240
Rp3241
ag7
(S'35.99999999999999999999999999'
p3242
tp3243
Rp3244
ag7
(S'35.99999999999999999999999999'
p3245
tp3246
Rp3247
ag7
(S'35.99999999999999999999999999'
p3248
tp3249
Rp3250
asg38
(lp3251
F0.0
aF0.0
aF0.0
aF0.0
aF0.0
aF0.0
aF0.0
aF0.0
aF0.0
aF0.0
asg40
(lp3252
F0.25
aF0.25
aF0.25
aF0.25
aF0.25
aF0.25
aF0.25
aF0.25
aF0.25
aF0.25
asg42
(lp3253
g44
(g48
S'v\x1f\x91\xb8\xa9Mg@'
p3254
tp3255
Rp3256
ag44
(g48
S'V\xb1\xff\xdb\x12\x10g@'
p3257
tp3258
Rp3259
ag44
(g48
S'\x1a5\xb8\xdf\xcdCg@'
p3260
tp3261
Rp3262
ag44
(g48
S'X}d\x14\xad\ng@'
p3263
tp3264
Rp3265
ag44
(g48
S'\x1e\xd9*\xf9\xc0Hg@'
p3266
tp3267
Rp3268
ag44
(g48
S'\x97\x7f%\xb8\x99/g@'
p3269
tp3270
Rp3271
ag44
(g48
S'5W$\x14\xe6ng@'
p3272
tp3273
Rp3274
ag44
(g48
S'\x0e\x8a\xb5k\x83\xb3g@'
p3275
tp3276
Rp3277
ag44
(g48
S'\xfc\xff\x9d`m\xe9f@'
p3278
tp3279
Rp3280
ag44
(g48
S'\x97\x7f%\xb8\x99/g@'
p3281
tp3282
Rp3283
asg81
(lp3284
F0.3149259090423584
aF0.36481714248657227
aF0.3473038673400879
aF0.37113499641418457
aF0.3314399719238281
aF0.34664297103881836
aF0.31949496269226074
aF0.32674193382263184
aF0.3543870449066162
aF0.3261129856109619
asg83
(lp3285
g44
(g48
S'\x153S\x0bq*R@'
p3286
tp3287
Rp3288
ag44
(g48
S'\x9a\xd3\xe3d\xe9\xffS@'
p3289
tp3290
Rp3291
ag44
(g48
S'\xe7\x8f\xafN\x83\x1fS@'
p3292
tp3293
Rp3294
ag44
(g48
S"\xb6o'\\\t\xc6Q@"
p3295
tp3296
Rp3297
ag44
(g48
S'm\x1b\x92$Y\xc9R@'
p3298
tp3299
Rp3300
ag44
(g48
S'\x8fO\xc1\xdb\x8bDS@'
p3301
tp3302
Rp3303
ag44
(g48
S'\xfd8\x15-\xb8\x04R@'
p3304
tp3305
Rp3306
ag44
(g48
S'\x88\xf66\x94\xca\x0eS@'
p3307
tp3308
Rp3309
ag44
(g48
S'Zy#=X\x0eT@'
p3310
tp3311
Rp3312
ag44
(g48
S'\x8e\xeb\xe1\xa9{\xceQ@'
p3313
tp3314
Rp3315
asg115
(lp3316
g44
(g48
S'\xe3Gh%e|#@'
p3317
tp3318
Rp3319
ag44
(g48
S'\x0eqK_x\x00"@'
p3320
tp3321
Rp3322
ag44
(g48
S'\x11\xb7\xf4\x85\x07<#@'
p3323
tp3324
Rp3325
ag44
(g48
S'Z;\xc4-}\xe1!@'
p3326
tp3327
Rp3328
ag44
(g48
S']\x8f\xc2\xf5(\\#@'
p3329
tp3330
Rp3331
ag44
(g48
S'>\x18,E\x8d\xbc"@'
p3332
tp3333
Rp3334
ag44
(g48
S'-\xda\x8cn\xf7`$@'
p3335
tp3336
Rp3337
ag44
(g48
S'\xf3\x9c\tB\xa4~&@'
p3338
tp3339
Rp3340
ag44
(g48
S'\n^N\xc1\xcb)!@'
p3341
tp3342
Rp3343
ag44
(g48
S'>\x18,E\x8d\xbc"@'
p3344
tp3345
Rp3346
asg147
(lp3347
F0.0
aF0.0
aF0.0
aF0.0
aF0.0
aF0.0
aF0.0
aF0.0
aF0.0
aF0.0
asg149
(lp3348
F0.25
aF0.25
aF0.25
aF0.25
aF0.25
aF0.25
aF0.25
aF0.25
aF0.25
aF0.25
asg151
(lp3349
g44
(g48
S'\xff\x83\xb7\x15O\xb0%@'
p3350
tp3351
Rp3352
ag44
(g48
S'\xff\x83\xb7\x15O\xb0%@'
p3353
tp3354
Rp3355
ag44
(g48
S'\xff\x83\xb7\x15O\xb0%@'
p3356
tp3357
Rp3358
ag44
(g48
S'\xff\x83\xb7\x15O\xb0%@'
p3359
tp3360
Rp3361
ag44
(g48
S'\xff\x83\xb7\x15O\xb0%@'
p3362
tp3363
Rp3364
ag44
(g48
S'\xff\x83\xb7\x15O\xb0%@'
p3365
tp3366
Rp3367
ag44
(g48
S'\xff\x83\xb7\x15O\xb0%@'
p3368
tp3369
Rp3370
ag44
(g48
S'\xff\x83\xb7\x15O\xb0%@'
p3371
tp3372
Rp3373
ag44
(g48
S'\xff\x83\xb7\x15O\xb0%@'
p3374
tp3375
Rp3376
ag44
(g48
S'\xff\x83\xb7\x15O\xb0%@'
p3377
tp3378
Rp3379
asg183
(lp3380
F0.0
aF0.0
aF0.0
aF0.0
aF0.0
aF0.0
aF0.0
aF0.0
aF0.0
aF0.0
asg185
(lp3381
F10.513926884181544
aF12.347794527356033
aF11.471236807400707
aF10.121719787905864
aF11.134655928006978
aF11.615898536100552
aF10.366574770332775
aF11.405918075670112
aF12.404173383575259
aF10.154713922835771
asg187
(lp3382
g44
(g48
S'\xbaD\xefi\xce\x07f@'
p3383
tp3384
Rp3385
ag44
(g48
S'_vd\x96\xb9\xaee@'
p3386
tp3387
Rp3388
ag44
(g48
S'\xc0\xd5\x84Df\xf9e@'
p3389
tp3390
Rp3391
ag44
(g48
S'\xb0\x17\x99v\x03\xa7e@'
p3392
tp3393
Rp3394
ag44
(g48
S'\x18\xf7\xc7\xef\x9f\x00f@'
p3395
tp3396
Rp3397
ag44
(g48
S'\xc2|vF\x0f\xdce@'
p3398
tp3399
Rp3400
ag44
(g48
S'\xf4\xd6\xb1\x01\xdc8f@'
p3401
tp3402
Rp3403
ag44
(g48
S'X\xe7,\\\x15\xa1f@'
p3404
tp3405
Rp3406
ag44
(g48
S';\x98\x8d\xac\xcdwe@'
p3407
tp3408
Rp3409
ag44
(g48
S'\xc2|vF\x0f\xdce@'
p3410
tp3411
Rp3412
asg219
(lp3413
g44
(g48
S'fffff\xe6N@'
p3414
tp3415
Rp3416
ag44
(g48
S'33333\xb3M@'
p3417
tp3418
Rp3419
ag44
(g48
S'33333\xb3N@'
p3420
tp3421
Rp3422
ag44
(g48
S'\x9a\x99\x99\x99\x99\x99M@'
p3423
tp3424
Rp3425
ag44
(g48
S'\xcd\xcc\xcc\xcc\xcc\xccN@'
p3426
tp3427
Rp3428
ag44
(g48
S'\xcd\xcc\xcc\xcc\xccLN@'
p3429
tp3430
Rp3431
ag44
(g48
S'\x9a\x99\x99\x99\x99\x99O@'
p3432
tp3433
Rp3434
ag44
(g48
S'\x9a\x99\x99\x99\x99\x99P@'
p3435
tp3436
Rp3437
ag44
(g48
S'\x00\x00\x00\x00\x00\x00M@'
p3438
tp3439
Rp3440
ag44
(g48
S'\xcd\xcc\xcc\xcc\xccLN@'
p3441
tp3442
Rp3443
asg251
(lp3444
F0.0
aF0.0
aF0.0
aF0.0
aF0.0
aF0.0
aF0.0
aF0.0
aF0.0
aF0.0
asg253
(lp3445
g44
(g48
S'\x93w\x8e\xde\xa2~\x1a@'
p3446
tp3447
Rp3448
ag44
(g48
S'\xad\x931\xe6\xc2\x0e\x18@'
p3449
tp3450
Rp3451
ag44
(g48
S'9"L8\x91\x14\x1a@'
p3452
tp3453
Rp3454
ag44
(g48
S'h\x8euO!\xdc\x17@'
p3455
tp3456
Rp3457
ag44
(g48
S'\xaal\x95K\x7fI\x1a@'
p3458
tp3459
Rp3460
ag44
(g48
S'*}\x04\xe8\xefB\x19@'
p3461
tp3462
Rp3463
ag44
(g48
S'\x1f\xd1\x96\xdau\xf8\x1b@'
p3464
tp3465
Rp3466
ag44
(g48
S'P\xf4i\xbc\x82~\x1f@'
p3467
tp3468
Rp3469
ag44
(g48
S'\xab8x@\xbb\xb0\x16@'
p3470
tp3471
Rp3472
ag44
(g48
S'*}\x04\xe8\xefB\x19@'
p3473
tp3474
Rp3475
asg285
(lp3476
g44
(g48
S'/\x9f\x84N\x1b6\x1f@'
p3477
tp3478
Rp3479
ag44
(g48
S'\xa2\x90cZ\xfeE#@'
p3480
tp3481
Rp3482
ag44
(g48
S'<\t\xfb-2\x85!@'
p3483
tp3484
Rp3485
ag44
(g48
S'\xb3\x91\xd5\x91|\xa4\x1d@'
p3486
tp3487
Rp3488
ag44
(g48
S'H \xc0\xd9\xdd\xd8 @'
p3489
tp3490
Rp3491
ag44
(g48
S'\x8c\x88\x1eHC\xcf!@'
p3492
tp3493
Rp3494
ag44
(g48
S'\xcf\xb6\x8c\xd57\x9f\x1e@'
p3495
tp3496
Rp3497
ag44
(g48
S'~\xd6\t\xb9\xc0c!@'
p3498
tp3499
Rp3500
ag44
(g48
S'"\xdc\xe2\n\xdcb#@'
p3501
tp3502
Rp3503
ag44
(g48
S'\x13\x81\xbf\xc8E\xc6\x1d@'
p3504
tp3505
Rp3506
assS'c880.isc'
p3507
(dp3508
g3
(lp3509
F0.0
aF0.0
aF9.5367431640625e-07
aF0.0
aF0.0
aF9.5367431640625e-07
aF0.0
aF0.0
aF0.0
aF9.5367431640625e-07
asg5
(lp3510
g7
(S'6E+1'
p3511
tp3512
Rp3513
ag7
(S'6E+1'
p3514
tp3515
Rp3516
ag7
(S'6E+1'
p3517
tp3518
Rp3519
ag7
(S'6E+1'
p3520
tp3521
Rp3522
ag7
(S'6E+1'
p3523
tp3524
Rp3525
ag7
(S'6E+1'
p3526
tp3527
Rp3528
ag7
(S'6E+1'
p3529
tp3530
Rp3531
ag7
(S'6E+1'
p3532
tp3533
Rp3534
ag7
(S'6E+1'
p3535
tp3536
Rp3537
ag7
(S'6E+1'
p3538
tp3539
Rp3540
asg38
(lp3541
F0.0
aF0.0
aF0.0
aF0.0
aF0.0
aF0.0
aF0.0
aF0.0
aF0.0
aF0.0
asg40
(lp3542
F0.25
aF0.25
aF0.25
aF0.25
aF0.25
aF0.25
aF0.25
aF0.25
aF0.25
aF0.25
asg42
(lp3543
g44
(g48
S'\xfda\xeb4.\x19w@'
p3544
tp3545
Rp3546
ag44
(g48
S'\xcc\n\x82o\xcd w@'
p3547
tp3548
Rp3549
ag44
(g48
S'\xcdmjZ\xec\xa2w@'
p3550
tp3551
Rp3552
ag44
(g48
S'\xdbcK\x07k7w@'
p3553
tp3554
Rp3555
ag44
(g48
S' \xc9\r\xc2b\xc1w@'
p3556
tp3557
Rp3558
ag44
(g48
S'\xdd\xc2f\x9a\n\xbew@'
p3559
tp3560
Rp3561
ag44
(g48
S'_\xbb\xa0\xbb(\x8ew@'
p3562
tp3563
Rp3564
ag44
(g48
S'\xb9ek\x03\x1f\x95w@'
p3565
tp3566
Rp3567
ag44
(g48
S'w\xc6\xcf\xae\xa9\x8aw@'
p3568
tp3569
Rp3570
ag44
(g48
S'\x84B\x182Y\xa6w@'
p3571
tp3572
Rp3573
asg81
(lp3574
F10.917784929275513
aF8.088865041732788
aF6.1917641162872314
aF8.495177984237671
aF6.744908094406128
aF8.122412919998169
aF7.207840919494629
aF9.653078079223633
aF10.06112813949585
aF6.72504186630249
asg83
(lp3575
g44
(g48
S'\x88jOb\xe5\x14c@'
p3576
tp3577
Rp3578
ag44
(g48
S"x\xa7\xfe:'xc@"
p3579
tp3580
Rp3581
ag44
(g48
S'nU\xcf\xbf\xe4~b@'
p3582
tp3583
Rp3584
ag44
(g48
S'\xac%\n\xf8\xfb\xb7a@'
p3585
tp3586
Rp3587
ag44
(g48
S'\x8a%$\xe8\x84$c@'
p3588
tp3589
Rp3590
ag44
(g48
S'\xbb*\x03\xac=jb@'
p3591
tp3592
Rp3593
ag44
(g48
S'\xf5 ON\xb4\xd6a@'
p3594
tp3595
Rp3596
ag44
(g48
S'cW\xd2T\xd1\xa4c@'
p3597
tp3598
Rp3599
ag44
(g48
S'\xc4\xb6\xb8\xc4\x00\xf8b@'
p3600
tp3601
Rp3602
ag44
(g48
S'\xce\xf7\xb8\xafXDb@'
p3603
tp3604
Rp3605
asg115
(lp3606
g44
(g48
S'\xd2j\x12\xa2\xf8\x8b-@'
p3607
tp3608
Rp3609
ag44
(g48
S'\t;|\xa5\x95\xc2-@'
p3610
tp3611
Rp3612
ag44
(g48
S'~\x86\xf3\xdb\x9b\xdd0@'
p3613
tp3614
Rp3615
ag44
(g48
S'\xcd\xa8Vo\x9ag.@'
p3616
tp3617
Rp3618
ag44
(g48
S'\x9f,\x9f\x1e\xa9a1@'
p3619
tp3620
Rp3621
ag44
(g48
S'\xa0\xe8w\xd5\xe3R1@'
p3622
tp3623
Rp3624
ag44
(g48
S'c\x9ay\xe8\xad\x860@'
p3625
tp3626
Rp3627
ag44
(g48
S'\xff\xd3\xff\xbe\x8e\xa30@'
p3628
tp3629
Rp3630
ag44
(g48
S'~e3\xebFx0@'
p3631
tp3632
Rp3633
ag44
(g48
S'M\xa0\x80\xda.\xec0@'
p3634
tp3635
Rp3636
asg147
(lp3637
F0.0
aF0.0
aF0.0
aF0.0
aF0.0
aF0.0
aF0.0
aF0.0
aF0.0
aF0.0
asg149
(lp3638
F0.25
aF0.25
aF0.25
aF0.25
aF0.25
aF0.25
aF0.25
aF0.25
aF0.25
aF0.25
asg151
(lp3639
g44
(g48
S'\xd3O\x00\x18\xab\xa2/@'
p3640
tp3641
Rp3642
ag44
(g48
S'\xd3O\x00\x18\xab\xa2/@'
p3643
tp3644
Rp3645
ag44
(g48
S'\xd3O\x00\x18\xab\xa2/@'
p3646
tp3647
Rp3648
ag44
(g48
S'\xd3O\x00\x18\xab\xa2/@'
p3649
tp3650
Rp3651
ag44
(g48
S'\xd3O\x00\x18\xab\xa2/@'
p3652
tp3653
Rp3654
ag44
(g48
S'\xd3O\x00\x18\xab\xa2/@'
p3655
tp3656
Rp3657
ag44
(g48
S'\xd3O\x00\x18\xab\xa2/@'
p3658
tp3659
Rp3660
ag44
(g48
S'\xd3O\x00\x18\xab\xa2/@'
p3661
tp3662
Rp3663
ag44
(g48
S'\xd3O\x00\x18\xab\xa2/@'
p3664
tp3665
Rp3666
ag44
(g48
S'\xd3O\x00\x18\xab\xa2/@'
p3667
tp3668
Rp3669
asg183
(lp3670
F0.0
aF0.0
aF0.0
aF0.0
aF0.0
aF0.0
aF0.0
aF0.0
aF0.0
aF0.0
asg185
(lp3671
F21.8835265577387
aF22.65897353112494
aF20.711632186190766
aF19.157653293595
aF22.005582306556445
aF20.550283390594817
aF19.397653812090955
aF23.007914598212952
aF21.657799763891557
aF20.25423280748978
asg187
(lp3672
g44
(g48
S'\x88\xaa\xbc$d\xc9u@'
p3673
tp3674
Rp3675
ag44
(g48
S'\x95\xf5\x01G\xbb\xd2u@'
p3676
tp3677
Rp3678
ag44
(g48
S'\x04pI\xf27sv@'
p3679
tp3680
Rp3681
ag44
(g48
S'O1\x04L{\xeeu@'
p3682
tp3683
Rp3684
ag44
(g48
S'Htk\xbe\x1d\x99v@'
p3685
tp3686
Rp3687
ag44
(g48
S'1%\xf7\xd7\xf2\x94v@'
p3688
tp3689
Rp3690
ag44
(g48
S'k\xd3\xed\xdfvYv@'
p3691
tp3692
Rp3693
ag44
(g48
S'd\xc3o\xbe\x17bv@'
p3694
tp3695
Rp3696
ag44
(g48
S'\x1d\x95\xf2<"Uv@'
p3697
tp3698
Rp3699
ag44
(g48
S'\xd8\xb6\xf0\x06ywv@'
p3700
tp3701
Rp3702
asg219
(lp3703
g44
(g48
S'\x00\x00\x00\x00\x00\xc0[@'
p3704
tp3705
Rp3706
ag44
(g48
S'\x9a\x99\x99\x99\x99\xd9[@'
p3707
tp3708
Rp3709
ag44
(g48
S'fffff\xa6]@'
p3710
tp3711
Rp3712
ag44
(g48
S'fffff&\\@'
p3713
tp3714
Rp3715
ag44
(g48
S'\x9a\x99\x99\x99\x99\x19^@'
p3716
tp3717
Rp3718
ag44
(g48
S'\xcd\xcc\xcc\xcc\xcc\x0c^@'
p3719
tp3720
Rp3721
ag44
(g48
S'\x9a\x99\x99\x99\x99Y]@'
p3722
tp3723
Rp3724
ag44
(g48
S'33333s]@'
p3725
tp3726
Rp3727
ag44
(g48
S'\xcd\xcc\xcc\xcc\xccL]@'
p3728
tp3729
Rp3730
ag44
(g48
S'33333\xb3]@'
p3731
tp3732
Rp3733
asg251
(lp3734
F0.0
aF0.0
aF0.0
aF0.0
aF0.0
aF0.0
aF0.0
aF0.0
aF0.0
aF0.0
asg253
(lp3735
g44
(g48
S'\xc4\xb9\xa2\x82\xcf\xb9%@'
p3736
tp3737
Rp3738
ag44
(g48
S'\xca\x050\xc9\xa7\xe8%@'
p3739
tp3740
Rp3741
ag44
(g48
S'S\x8c\x19\x94tU)@'
p3742
tp3743
Rp3744
ag44
(g48
S'\xfc\xe6t\\^v&@'
p3745
tp3746
Rp3747
ag44
(g48
S'\xba\x85\x90\xc7\x99:*@'
p3748
tp3749
Rp3750
ag44
(g48
S'\xd3?\xb0\x93\xf1 *@'
p3751
tp3752
Rp3753
ag44
(g48
S'\xae@\xbb\xe3\xe6\xbe(@'
p3754
tp3755
Rp3756
ag44
(g48
S'\xb4/\xeb\xd3\xe3\xf0(@'
p3757
tp3758
Rp3759
ag44
(g48
S'\xfd\x18\x9dG\xfb\xa5(@'
p3760
tp3761
Rp3762
ag44
(g48
S'\xda}\xc52\xb8n)@'
p3763
tp3764
Rp3765
asg285
(lp3766
g44
(g48
S'\xa1\x98\xe6h\xd9\xed1@'
p3767
tp3768
Rp3769
ag44
(g48
S'\x81\x12E\x1a]\xb42@'
p3770
tp3771
Rp3772
ag44
(g48
S'mn\xe6#\xd8\xc10@'
p3773
tp3774
Rp3775
ag44
(g48
S'\xd2\x1d\xb8(\rh.@'
p3776
tp3777
Rp3778
ag44
(g48
S'\xa5\x0e\x90t\x18\r2@'
p3779
tp3780
Rp3781
ag44
(g48
S'\x07\x19N\xfc\x89\x980@'
p3782
tp3783
Rp3784
ag44
(g48
S'\xf6\n\xcc\x81\xee\xe2.@'
p3785
tp3786
Rp3787
ag44
(g48
S'Wr\xecM\xb1\r3@'
p3788
tp3789
Rp3790
ag44
(g48
S'\x191\xb9-\x10\xb41@'
p3791
tp3792
Rp3793
ag44
(g48
S'-\xb3\xb9\x03\xc0L0@'
p3794
tp3795
Rp3796
assS'ra.cnf'
p3797
(dp3798
g3
(lp3799
F0.0
aF0.0
aF0.0
aF0.0
aF0.0
aF9.5367431640625e-07
aF0.0
aF0.0
aF1.1920928955078125e-06
aF0.0
asg5
(lp3800
g7
(S'950.9775004326937088722433664'
p3801
tp3802
Rp3803
ag7
(S'950.9775004326937088722433664'
p3804
tp3805
Rp3806
ag7
(S'950.9775004326937088722433664'
p3807
tp3808
Rp3809
ag7
(S'950.9775004326937088722433664'
p3810
tp3811
Rp3812
ag7
(S'950.9775004326937088722433664'
p3813
tp3814
Rp3815
ag7
(S'950.9775004326937088722433664'
p3816
tp3817
Rp3818
ag7
(S'950.9775004326937088722433664'
p3819
tp3820
Rp3821
ag7
(S'950.9775004326937088722433664'
p3822
tp3823
Rp3824
ag7
(S'950.9775004326937088722433664'
p3825
tp3826
Rp3827
ag7
(S'950.9775004326937088722433664'
p3828
tp3829
Rp3830
asg38
(lp3831
F0.0
aF0.0
aF0.0
aF0.0
aF0.0
aF0.0
aF0.0
aF0.0
aF0.0
aF0.0
asg40
(lp3832
F0.5
aF0.5
aF0.5
aF0.5
aF0.5
aF0.5
aF0.5
aF0.5
aF0.5
aF0.5
asg42
(lp3833
g44
(g48
S'\x00\x00\x00\x00\x00P\x93@'
p3834
tp3835
Rp3836
ag44
(g48
S'\x00\x00\x00\x00\x00P\x93@'
p3837
tp3838
Rp3839
ag44
(g48
S'\x00\x00\x00\x00\x00P\x93@'
p3840
tp3841
Rp3842
ag44
(g48
S'\x00\x00\x00\x00\x00P\x93@'
p3843
tp3844
Rp3845
ag44
(g48
S'\x00\x00\x00\x00\x00P\x93@'
p3846
tp3847
Rp3848
ag44
(g48
S'\x00\x00\x00\x00\x00P\x93@'
p3849
tp3850
Rp3851
ag44
(g48
S'\x00\x00\x00\x00\x00P\x93@'
p3852
tp3853
Rp3854
ag44
(g48
S'\x00\x00\x00\x00\x00P\x93@'
p3855
tp3856
Rp3857
ag44
(g48
S'\x00\x00\x00\x00\x00P\x93@'
p3858
tp3859
Rp3860
ag44
(g48
S'\x00\x00\x00\x00\x00P\x93@'
p3861
tp3862
Rp3863
asg81
(lp3864
F1.8463330268859863
aF1.767488956451416
aF1.6546990871429443
aF1.607795000076294
aF1.6927070617675781
aF1.9199328422546387
aF2.026872158050537
aF1.7740180492401123
aF1.9377000331878662
aF1.8363230228424072
asg83
(lp3865
g44
(g48
S'S\xe4D\x8b\xec#\x8e@'
p3866
tp3867
Rp3868
ag44
(g48
S'V\xdb\xa4\x0f+\xd1\x8d@'
p3869
tp3870
Rp3871
ag44
(g48
S'\x80A\xb4\xf2z\xc8\x8e@'
p3872
tp3873
Rp3874
ag44
(g48
S'*\xbcg&\xe2C\x8e@'
p3875
tp3876
Rp3877
ag44
(g48
S'X<\r\xd0\xfb\xe2\x8d@'
p3878
tp3879
Rp3880
ag44
(g48
S'\x90\xa8j\xbd\xb2\xe7\x8d@'
p3881
tp3882
Rp3883
ag44
(g48
S'#\xe7^J\xaan\x8e@'
p3884
tp3885
Rp3886
ag44
(g48
S'\x8d^z,\x971\x8e@'
p3887
tp3888
Rp3889
ag44
(g48
S'\x1a\xb3G=\x84\xfa\x8d@'
p3890
tp3891
Rp3892
ag44
(g48
S';5\x97\x04\xe1\x11\x8e@'
p3893
tp3894
Rp3895
asg115
(lp3896
g44
(g48
S'm\x18\xfbcs\xe6t@'
p3897
tp3898
Rp3899
ag44
(g48
S'8L\x94\xb9\xa0@t@'
p3900
tp3901
Rp3902
ag44
(g48
S'\x81\xed\xa5\xd5\xb5\x8ft@'
p3903
tp3904
Rp3905
ag44
(g48
S'\x0b&\x14 \x18ht@'
p3906
tp3907
Rp3908
ag44
(g48
S'W\xf35\xb4\n\x8bt@'
p3909
tp3910
Rp3911
ag44
(g48
S'\xa1\x06\x18\xb7\xf7\xc1s@'
p3912
tp3913
Rp3914
ag44
(g48
S'.\xb9\\\x9a\xc6\rt@'
p3915
tp3916
Rp3917
ag44
(g48
S'\xdf\x87l)V\xd8t@'
p3918
tp3919
Rp3920
ag44
(g48
S'nl\x18\xfbc\x9bt@'
p3921
tp3922
Rp3923
ag44
(g48
S'\xb4\x93S~\x0c}t@'
p3924
tp3925
Rp3926
asg147
(lp3927
F0.0
aF0.0
aF0.0
aF0.0
aF0.0
aF0.0
aF0.0
aF0.0
aF0.0
aF0.0
asg149
(lp3928
F0.5
aF0.5
aF0.5
aF0.5
aF0.5
aF0.5
aF0.5
aF0.5
aF0.5
aF0.5
asg151
(lp3929
g44
(g48
S'\xf8\xf9\r9z;;@'
p3930
tp3931
Rp3932
ag44
(g48
S'\xf8\xf9\r9z;;@'
p3933
tp3934
Rp3935
ag44
(g48
S'\xf8\xf9\r9z;;@'
p3936
tp3937
Rp3938
ag44
(g48
S'\xf8\xf9\r9z;;@'
p3939
tp3940
Rp3941
ag44
(g48
S'\xf8\xf9\r9z;;@'
p3942
tp3943
Rp3944
ag44
(g48
S'\xf8\xf9\r9z;;@'
p3945
tp3946
Rp3947
ag44
(g48
S'\xf8\xf9\r9z;;@'
p3948
tp3949
Rp3950
ag44
(g48
S'\xf8\xf9\r9z;;@'
p3951
tp3952
Rp3953
ag44
(g48
S'\xf8\xf9\r9z;;@'
p3954
tp3955
Rp3956
ag44
(g48
S'\xf8\xf9\r9z;;@'
p3957
tp3958
Rp3959
asg183
(lp3960
F0.0
aF0.0
aF0.0
aF0.0
aF0.0
aF0.0
aF0.0
aF0.0
aF0.0
aF0.0
asg185
(lp3961
F266.7895288832314
aF261.61729184448825
aF277.0742954952991
aF268.7869912856762
aF262.73075658879884
aF263.0254165513886
aF271.4608537100493
aF267.64368653026537
aF264.2015638820943
aF265.66171489697484
asg187
(lp3962
g44
(g48
S'\x00\x00\x00\x00\x00P\x93@'
p3963
tp3964
Rp3965
ag44
(g48
S'\x00\x00\x00\x00\x00P\x93@'
p3966
tp3967
Rp3968
ag44
(g48
S'\x00\x00\x00\x00\x00P\x93@'
p3969
tp3970
Rp3971
ag44
(g48
S'\x00\x00\x00\x00\x00P\x93@'
p3972
tp3973
Rp3974
ag44
(g48
S'\x00\x00\x00\x00\x00P\x93@'
p3975
tp3976
Rp3977
ag44
(g48
S'\x00\x00\x00\x00\x00P\x93@'
p3978
tp3979
Rp3980
ag44
(g48
S'\x00\x00\x00\x00\x00P\x93@'
p3981
tp3982
Rp3983
ag44
(g48
S'\x00\x00\x00\x00\x00P\x93@'
p3984
tp3985
Rp3986
ag44
(g48
S'\x00\x00\x00\x00\x00P\x93@'
p3987
tp3988
Rp3989
ag44
(g48
S'\x00\x00\x00\x00\x00P\x93@'
p3990
tp3991
Rp3992
asg219
(lp3993
g44
(g48
S'\x9a\x99\x99\x99\x99i\x8c@'
p3994
tp3995
Rp3996
ag44
(g48
S'\x00\x00\x00\x00\x00\xf8\x8b@'
p3997
tp3998
Rp3999
ag44
(g48
S'fffff.\x8c@'
p4000
tp4001
Rp4002
ag44
(g48
S'33333\x13\x8c@'
p4003
tp4004
Rp4005
ag44
(g48
S'33333+\x8c@'
p4006
tp4007
Rp4008
ag44
(g48
S'\x00\x00\x00\x00\x00\xa0\x8b@'
p4009
tp4010
Rp4011
ag44
(g48
S'\xcd\xcc\xcc\xcc\xcc\xd4\x8b@'
p4012
tp4013
Rp4014
ag44
(g48
S'\x00\x00\x00\x00\x00`\x8c@'
p4015
tp4016
Rp4017
ag44
(g48
S'fffff6\x8c@'
p4018
tp4019
Rp4020
ag44
(g48
S'\x9a\x99\x99\x99\x99!\x8c@'
p4021
tp4022
Rp4023
asg251
(lp4024
F0.0
aF0.0
aF0.0
aF0.0
aF0.0
aF0.0
aF0.0
aF0.0
aF0.0
aF0.0
asg253
(lp4025
g44
(g48
S'\xf9\xa4\x8a\xd5\xbc\xaas@'
p4026
tp4027
Rp4028
ag44
(g48
S'/.,\xa8\xeb\ts@'
p4029
tp4030
Rp4031
ag44
(g48
S'\xef\x90\x97\x18\x9bVs@'
p4032
tp4033
Rp4034
ag44
(g48
S'\xbd\xe8\xd8800s@'
p4035
tp4036
Rp4037
ag44
(g48
S'T|O\x10\x14Rs@'
p4038
tp4039
Rp4040
ag44
(g48
S'\x85\x11yY#\x8fr@'
p4041
tp4042
Rp4043
ag44
(g48
S'Rx\xab\x9d\x9e\xd8r@'
p4044
tp4045
Rp4046
ag44
(g48
S'\x1a\xc5s\xe6\x0b\x9ds@'
p4047
tp4048
Rp4049
ag44
(g48
S'\xf4Q&\xff\xeeas@'
p4050
tp4051
Rp4052
ag44
(g48
S'`\xcd\xe4%\x82Ds@'
p4053
tp4054
Rp4055
asg285
(lp4056
g44
(g48
S'\x9e\xb7\x82.\x8c\xa5o@'
p4057
tp4058
Rp4059
ag44
(g48
S'\xa4\xa5B7\t\x00o@'
p4060
tp4061
Rp4062
ag44
(g48
S'\xfc\xb8\xb0~Twp@'
p4063
tp4064
Rp4065
ag44
(g48
S'Lg\xc8dw\xe5o@'
p4066
tp4067
Rp4068
ag44
(g48
S'\xa8g\x13\xb8\xaa#o@'
p4069
tp4070
Rp4071
ag44
(g48
S'\x18@\xce\x92\x18-o@'
p4072
tp4073
Rp4074
ag44
(g48
S'\x9f^[\xd6\x83\x1dp@'
p4075
tp4076
Rp4077
ag44
(g48
S'\x12\xac\xedp\xe1\xc0o@'
p4078
tp4079
Rp4080
ag44
(g48
S',U\x88\x92\xbbRo@'
p4081
tp4082
Rp4083
ag44
(g48
S"nY'!u\x81o@"
p4084
tp4085
Rp4086
assS'sat-grid-pbl-0020.cnf'
p4087
(dp4088
g3
(lp4089
F9.5367431640625e-07
aF0.0
aF0.0
aF0.0
aF0.0
aF0.0
aF0.0
aF0.0
aF9.5367431640625e-07
aF0.0
asg5
(lp4090
g7
(S'317.9209628962074205681936812'
p4091
tp4092
Rp4093
ag7
(S'317.9209628962074205681936812'
p4094
tp4095
Rp4096
ag7
(S'317.9209628962074205681936812'
p4097
tp4098
Rp4099
ag7
(S'317.9209628962074205681936812'
p4100
tp4101
Rp4102
ag7
(S'317.9209628962074205681936812'
p4103
tp4104
Rp4105
ag7
(S'317.9209628962074205681936812'
p4106
tp4107
Rp4108
ag7
(S'317.9209628962074205681936812'
p4109
tp4110
Rp4111
ag7
(S'317.9209628962074205681936812'
p4112
tp4113
Rp4114
ag7
(S'317.9209628962074205681936812'
p4115
tp4116
Rp4117
ag7
(S'317.9209628962074205681936812'
p4118
tp4119
Rp4120
asg38
(lp4121
F0.0
aF0.0
aF0.0
aF0.0
aF0.0
aF0.0
aF0.0
aF0.0
aF0.0
aF0.0
asg40
(lp4122
F0.5
aF0.5
aF0.5
aF0.5
aF0.5
aF0.5
aF0.5
aF0.5
aF0.5
aF0.5
asg42
(lp4123
g44
(g48
S'\x00\x00\x00\x00\x00@z@'
p4124
tp4125
Rp4126
ag44
(g48
S'\x00\x00\x00\x00\x00@z@'
p4127
tp4128
Rp4129
ag44
(g48
S'\x00\x00\x00\x00\x00@z@'
p4130
tp4131
Rp4132
ag44
(g48
S'\x00\x00\x00\x00\x00@z@'
p4133
tp4134
Rp4135
ag44
(g48
S'\x00\x00\x00\x00\x00@z@'
p4136
tp4137
Rp4138
ag44
(g48
S'\x00\x00\x00\x00\x00@z@'
p4139
tp4140
Rp4141
ag44
(g48
S'\x00\x00\x00\x00\x00@z@'
p4142
tp4143
Rp4144
ag44
(g48
S'\x00\x00\x00\x00\x00@z@'
p4145
tp4146
Rp4147
ag44
(g48
S'\x00\x00\x00\x00\x00@z@'
p4148
tp4149
Rp4150
ag44
(g48
S'\x00\x00\x00\x00\x00@z@'
p4151
tp4152
Rp4153
asg81
(lp4154
F0.5315289497375488
aF0.49804019927978516
aF0.5073039531707764
aF0.3885641098022461
aF0.43331003189086914
aF0.3368871212005615
aF0.4309558868408203
aF0.44041991233825684
aF0.613239049911499
aF0.5191740989685059
asg83
(lp4155
g44
(g48
S'\xca\xb8\xdf\xae\x07\x92t@'
p4156
tp4157
Rp4158
ag44
(g48
S'\xc5\xd5\xbcKK\xc4t@'
p4159
tp4160
Rp4161
ag44
(g48
S' \x9e\xe5\x7f\xd6\xc5t@'
p4162
tp4163
Rp4164
ag44
(g48
S'\xd0\xe65\x8c:\tu@'
p4165
tp4166
Rp4167
ag44
(g48
S'f)\xb6\xe87\x00u@'
p4168
tp4169
Rp4170
ag44
(g48
S'\xa2\xc7\xcal\x18.t@'
p4171
tp4172
Rp4173
ag44
(g48
S' il7\xe1\x1au@'
p4174
tp4175
Rp4176
ag44
(g48
S'U\xa9[M~\x9dt@'
p4177
tp4178
Rp4179
ag44
(g48
S'\xf7Z\x9a\x17\x99\xa0t@'
p4180
tp4181
Rp4182
ag44
(g48
S'a3\x840@\xaat@'
p4183
tp4184
Rp4185
asg115
(lp4186
g44
(g48
S'N\xe0\x04N\xe0$[@'
p4187
tp4188
Rp4189
ag44
(g48
S'\xd2\xd7\x9bB\x15.[@'
p4190
tp4191
Rp4192
ag44
(g48
S'\xccJ\xc1\xc2se[@'
p4193
tp4194
Rp4195
ag44
(g48
S'\x00\x00\x00\x00\x00\x88]@'
p4196
tp4197
Rp4198
ag44
(g48
S',\xbe\xe2+\xbej\\@'
p4199
tp4200
Rp4201
ag44
(g48
S',\x05\x0b\xcfu\x90\\@'
p4202
tp4203
Rp4204
ag44
(g48
S'3\xdc\xae?\xb3\xd2\\@'
p4205
tp4206
Rp4207
ag44
(g48
S'\x80\x138\x81\x13X]@'
p4208
tp4209
Rp4210
ag44
(g48
S'\x9c\xef\xa7\xc6K7[@'
p4211
tp4212
Rp4213
ag44
(g48
S'\xe0\x04N\xe0\x04nZ@'
p4214
tp4215
Rp4216
asg147
(lp4217
F0.0
aF0.0
aF0.0
aF0.0
aF0.0
aF0.0
aF0.0
aF0.0
aF0.0
aF0.0
asg149
(lp4218
F0.5
aF0.5
aF0.5
aF0.5
aF0.5
aF0.5
aF0.5
aF0.5
aF0.5
aF0.5
asg151
(lp4219
g44
(g48
S'_u\xbc~\xbf\xbf/@'
p4220
tp4221
Rp4222
ag44
(g48
S'_u\xbc~\xbf\xbf/@'
p4223
tp4224
Rp4225
ag44
(g48
S'_u\xbc~\xbf\xbf/@'
p4226
tp4227
Rp4228
ag44
(g48
S'_u\xbc~\xbf\xbf/@'
p4229
tp4230
Rp4231
ag44
(g48
S'_u\xbc~\xbf\xbf/@'
p4232
tp4233
Rp4234
ag44
(g48
S'_u\xbc~\xbf\xbf/@'
p4235
tp4236
Rp4237
ag44
(g48
S'_u\xbc~\xbf\xbf/@'
p4238
tp4239
Rp4240
ag44
(g48
S'_u\xbc~\xbf\xbf/@'
p4241
tp4242
Rp4243
ag44
(g48
S'_u\xbc~\xbf\xbf/@'
p4244
tp4245
Rp4246
ag44
(g48
S'_u\xbc~\xbf\xbf/@'
p4247
tp4248
Rp4249
asg183
(lp4250
F0.0
aF0.0
aF0.0
aF0.0
aF0.0
aF0.0
aF0.0
aF0.0
aF0.0
aF0.0
asg185
(lp4251
F91.35032875956324
aF92.92108226895286
aF92.96932491388617
aF95.07528781672255
aF94.79371571370666
aF88.22737244461575
aF95.62688312928259
aF91.70855862756477
aF91.80557889357218
aF92.10722651542241
asg187
(lp4252
g44
(g48
S'\x00\x00\x00\x00\x00@z@'
p4253
tp4254
Rp4255
ag44
(g48
S'\x00\x00\x00\x00\x00@z@'
p4256
tp4257
Rp4258
ag44
(g48
S'\x00\x00\x00\x00\x00@z@'
p4259
tp4260
Rp4261
ag44
(g48
S'\x00\x00\x00\x00\x00@z@'
p4262
tp4263
Rp4264
ag44
(g48
S'\x00\x00\x00\x00\x00@z@'
p4265
tp4266
Rp4267
ag44
(g48
S'\x00\x00\x00\x00\x00@z@'
p4268
tp4269
Rp4270
ag44
(g48
S'\x00\x00\x00\x00\x00@z@'
p4271
tp4272
Rp4273
ag44
(g48
S'\x00\x00\x00\x00\x00@z@'
p4274
tp4275
Rp4276
ag44
(g48
S'\x00\x00\x00\x00\x00@z@'
p4277
tp4278
Rp4279
ag44
(g48
S'\x00\x00\x00\x00\x00@z@'
p4280
tp4281
Rp4282
asg219
(lp4283
g44
(g48
S'\x00\x00\x00\x00\x00\xe0r@'
p4284
tp4285
Rp4286
ag44
(g48
S'33333\xe3r@'
p4287
tp4288
Rp4289
ag44
(g48
S'fffff\xf6r@'
p4290
tp4291
Rp4292
ag44
(g48
S'\x00\x00\x00\x00\x00\xb0s@'
p4293
tp4294
Rp4295
ag44
(g48
S'\x00\x00\x00\x00\x00Ps@'
p4296
tp4297
Rp4298
ag44
(g48
S'\xcd\xcc\xcc\xcc\xcc\\s@'
p4299
tp4300
Rp4301
ag44
(g48
S'33333ss@'
p4302
tp4303
Rp4304
ag44
(g48
S'\x00\x00\x00\x00\x00\xa0s@'
p4305
tp4306
Rp4307
ag44
(g48
S'fffff\xe6r@'
p4308
tp4309
Rp4310
ag44
(g48
S'\x00\x00\x00\x00\x00\xa0r@'
p4311
tp4312
Rp4313
asg251
(lp4314
F0.0
aF0.0
aF0.0
aF0.0
aF0.0
aF0.0
aF0.0
aF0.0
aF0.0
aF0.0
asg253
(lp4315
g44
(g48
S'w\xdc\x9b\xe4\x8b]X@'
p4316
tp4317
Rp4318
ag44
(g48
S',\x93=\xffDfX@'
p4319
tp4320
Rp4321
ag44
(g48
S'[\x81\xa3c\xbc\x9aX@'
p4322
tp4323
Rp4324
ag44
(g48
S'2\x88Q?9\xa1Z@'
p4325
tp4326
Rp4327
ag44
(g48
S'X\xde\xf1\xf5z\x92Y@'
p4328
tp4329
Rp4330
ag44
(g48
S'\'"E1C\xb6Y@'
p4331
tp4332
Rp4333
ag44
(g48
S'\x9734\xac\x1d\xf5Y@'
p4334
tp4335
Rp4336
ag44
(g48
S'\xb2\xdfS\x02\xb8sZ@'
p4337
tp4338
Rp4339
ag44
(g48
S'+jT\xa9\xffnX@'
p4340
tp4341
Rp4342
ag44
(g48
S'\x05\x11\x0e~]\xb0W@'
p4343
tp4344
Rp4345
asg285
(lp4346
g44
(g48
S'\xb2\x83e\xd1o\xdaT@'
p4347
tp4348
Rp4349
ag44
(g48
S'\xa8\xbd\x1f\x0b\xf7>U@'
p4350
tp4351
Rp4352
ag44
(g48
S'^Nqs\rBU@'
p4353
tp4354
Rp4355
ag44
(g48
S'\xbe\xdf\x11\x8c\xd5\xc8U@'
p4356
tp4357
Rp4358
ag44
(g48
S'\xead\x12E\xd0\xb6U@'
p4359
tp4360
Rp4361
ag44
(g48
S'b\xa1;M\x91\x12T@'
p4362
tp4363
Rp4364
ag44
(g48
S'^\xe4~\xe2"\xecU@'
p4365
tp4366
Rp4367
ag44
(g48
S'\xc8d]\x0e]\xf1T@'
p4368
tp4369
Rp4370
ag44
(g48
S'\x0c\xc8\xda\xa2\x92\xf7T@'
p4371
tp4372
Rp4373
ag44
(g48
S'\xe0x\xae\xd4\xe0\nU@'
p4374
tp4375
Rp4376
assS'rb.cnf'
p4377
(dp4378
g3
(lp4379
F0.0
aF0.0
aF0.0
aF9.5367431640625e-07
aF0.0
aF0.0
aF9.5367431640625e-07
aF0.0
aF9.5367431640625e-07
aF0.0
asg5
(lp4380
g7
(S'1234.865106423983844696633852'
p4381
tp4382
Rp4383
ag7
(S'1234.865106423983844696633852'
p4384
tp4385
Rp4386
ag7
(S'1234.865106423983844696633852'
p4387
tp4388
Rp4389
ag7
(S'1234.865106423983844696633852'
p4390
tp4391
Rp4392
ag7
(S'1234.865106423983844696633852'
p4393
tp4394
Rp4395
ag7
(S'1234.865106423983844696633852'
p4396
tp4397
Rp4398
ag7
(S'1234.865106423983844696633852'
p4399
tp4400
Rp4401
ag7
(S'1234.865106423983844696633852'
p4402
tp4403
Rp4404
ag7
(S'1234.865106423983844696633852'
p4405
tp4406
Rp4407
ag7
(S'1234.865106423983844696633852'
p4408
tp4409
Rp4410
asg38
(lp4411
F0.0
aF0.0
aF0.0
aF0.0
aF0.0
aF0.0
aF0.0
aF0.0
aF0.0
aF0.0
asg40
(lp4412
F0.5
aF0.5
aF0.5
aF0.5
aF0.5
aF0.5
aF0.5
aF0.5
aF0.5
aF0.5
asg42
(lp4413
g44
(g48
S'\x00\x00\x00\x00\x00\xf8\x9c@'
p4414
tp4415
Rp4416
ag44
(g48
S'\x00\x00\x00\x00\x00\xf8\x9c@'
p4417
tp4418
Rp4419
ag44
(g48
S'\x00\x00\x00\x00\x00\xf8\x9c@'
p4420
tp4421
Rp4422
ag44
(g48
S'\x00\x00\x00\x00\x00\xf8\x9c@'
p4423
tp4424
Rp4425
ag44
(g48
S'\x00\x00\x00\x00\x00\xf8\x9c@'
p4426
tp4427
Rp4428
ag44
(g48
S'\x00\x00\x00\x00\x00\xf8\x9c@'
p4429
tp4430
Rp4431
ag44
(g48
S'\x00\x00\x00\x00\x00\xf8\x9c@'
p4432
tp4433
Rp4434
ag44
(g48
S'\x00\x00\x00\x00\x00\xf8\x9c@'
p4435
tp4436
Rp4437
ag44
(g48
S'\x00\x00\x00\x00\x00\xf8\x9c@'
p4438
tp4439
Rp4440
ag44
(g48
S'\x00\x00\x00\x00\x00\xf8\x9c@'
p4441
tp4442
Rp4443
asg81
(lp4444
F1.352766990661621
aF1.9628050327301025
aF1.352241039276123
aF1.3860349655151367
aF2.054959774017334
aF2.653102159500122
aF1.3505918979644775
aF1.3465099334716797
aF1.3620858192443848
aF2.0100460052490234
asg83
(lp4445
g44
(g48
S'\xe5\xe7\xac\x9d\x9f\xe7\x93@'
p4446
tp4447
Rp4448
ag44
(g48
S'\xf2b\x18\x0eN\xc6\x93@'
p4449
tp4450
Rp4451
ag44
(g48
S'F\xe7\x14@5\x08\x94@'
p4452
tp4453
Rp4454
ag44
(g48
S'vW\xfd9?\xcc\x93@'
p4455
tp4456
Rp4457
ag44
(g48
S'>\xd0M\xfe\x94\xf9\x93@'
p4458
tp4459
Rp4460
ag44
(g48
S'\xae/T\x85\xa9\xe3\x93@'
p4461
tp4462
Rp4463
ag44
(g48
S')\xbd\x88\xb6\xf3\xd8\x93@'
p4464
tp4465
Rp4466
ag44
(g48
S'o/\xfb\x8e\x12\x0f\x94@'
p4467
tp4468
Rp4469
ag44
(g48
S'\xf2\xea\x04jI\xc9\x93@'
p4470
tp4471
Rp4472
ag44
(g48
S'\xa6\x16[U=E\x93@'
p4473
tp4474
Rp4475
asg115
(lp4476
g44
(g48
S'\xda\xaa:\xf7\x95dy@'
p4477
tp4478
Rp4479
ag44
(g48
S'\x15H%\xe7e\x81z@'
p4480
tp4481
Rp4482
ag44
(g48
S'\xe9\x11\xbd\xbc.oy@'
p4483
tp4484
Rp4485
ag44
(g48
S'bCt\xc5\xab\xcay@'
p4486
tp4487
Rp4488
ag44
(g48
S'\xe5\xe0\xff\\;^y@'
p4489
tp4490
Rp4491
ag44
(g48
S'6\x00\xebj\x87\x97y@'
p4492
tp4493
Rp4494
ag44
(g48
S'\x86\r\x08a\xd0\xacy@'
p4495
tp4496
Rp4497
ag44
(g48
S"\xc9yY\xc4'\x80y@"
p4498
tp4499
Rp4500
ag44
(g48
S'\x1f\x84A\xc3l\xa6y@'
p4501
tp4502
Rp4503
ag44
(g48
S'}\x9c\x86\xea\xa7\x99y@'
p4504
tp4505
Rp4506
asg147
(lp4507
F0.0
aF0.0
aF0.0
aF0.0
aF0.0
aF0.0
aF0.0
aF0.0
aF0.0
aF0.0
asg149
(lp4508
F0.5
aF0.5
aF0.5
aF0.5
aF0.5
aF0.5
aF0.5
aF0.5
aF0.5
aF0.5
asg151
(lp4509
g44
(g48
S'X\x9dj\xff#\xad@@'
p4510
tp4511
Rp4512
ag44
(g48
S'X\x9dj\xff#\xad@@'
p4513
tp4514
Rp4515
ag44
(g48
S'X\x9dj\xff#\xad@@'
p4516
tp4517
Rp4518
ag44
(g48
S'X\x9dj\xff#\xad@@'
p4519
tp4520
Rp4521
ag44
(g48
S'X\x9dj\xff#\xad@@'
p4522
tp4523
Rp4524
ag44
(g48
S'X\x9dj\xff#\xad@@'
p4525
tp4526
Rp4527
ag44
(g48
S'X\x9dj\xff#\xad@@'
p4528
tp4529
Rp4530
ag44
(g48
S'X\x9dj\xff#\xad@@'
p4531
tp4532
Rp4533
ag44
(g48
S'X\x9dj\xff#\xad@@'
p4534
tp4535
Rp4536
ag44
(g48
S'X\x9dj\xff#\xad@@'
p4537
tp4538
Rp4539
asg183
(lp4540
F0.0
aF0.0
aF0.0
aF0.0
aF0.0
aF0.0
aF0.0
aF0.0
aF0.0
aF0.0
asg185
(lp4541
F313.76935577827294
aF309.6045311396132
aF317.84241944984376
aF310.3472906427031
aF316.0141689888468
aF313.2741921533933
aF311.9354188175241
aF318.7004800950208
aF309.9772650643839
aF293.4713662770845
asg187
(lp4542
g44
(g48
S'\x00\x00\x00\x00\x00\xf8\x9c@'
p4543
tp4544
Rp4545
ag44
(g48
S'\x00\x00\x00\x00\x00\xf8\x9c@'
p4546
tp4547
Rp4548
ag44
(g48
S'\x00\x00\x00\x00\x00\xf8\x9c@'
p4549
tp4550
Rp4551
ag44
(g48
S'\x00\x00\x00\x00\x00\xf8\x9c@'
p4552
tp4553
Rp4554
ag44
(g48
S'\x00\x00\x00\x00\x00\xf8\x9c@'
p4555
tp4556
Rp4557
ag44
(g48
S'\x00\x00\x00\x00\x00\xf8\x9c@'
p4558
tp4559
Rp4560
ag44
(g48
S'\x00\x00\x00\x00\x00\xf8\x9c@'
p4561
tp4562
Rp4563
ag44
(g48
S'\x00\x00\x00\x00\x00\xf8\x9c@'
p4564
tp4565
Rp4566
ag44
(g48
S'\x00\x00\x00\x00\x00\xf8\x9c@'
p4567
tp4568
Rp4569
ag44
(g48
S'\x00\x00\x00\x00\x00\xf8\x9c@'
p4570
tp4571
Rp4572
asg219
(lp4573
g44
(g48
S'\x9a\x99\x99\x99\x99-\x93@'
p4574
tp4575
Rp4576
ag44
(g48
S'\x00\x00\x00\x00\x00\x98\x93@'
p4577
tp4578
Rp4579
ag44
(g48
S'\x9a\x99\x99\x99\x991\x93@'
p4580
tp4581
Rp4582
ag44
(g48
S'\x00\x00\x00\x00\x00T\x93@'
p4583
tp4584
Rp4585
ag44
(g48
S'33333+\x93@'
p4586
tp4587
Rp4588
ag44
(g48
S'\xcd\xcc\xcc\xcc\xcc@\x93@'
p4589
tp4590
Rp4591
ag44
(g48
S'\xcd\xcc\xcc\xcc\xccH\x93@'
p4592
tp4593
Rp4594
ag44
(g48
S'\x00\x00\x00\x00\x008\x93@'
p4595
tp4596
Rp4597
ag44
(g48
S'fffffF\x93@'
p4598
tp4599
Rp4600
ag44
(g48
S'\x9a\x99\x99\x99\x99A\x93@'
p4601
tp4602
Rp4603
asg251
(lp4604
F0.0
aF0.0
aF0.0
aF0.0
aF0.0
aF0.0
aF0.0
aF0.0
aF0.0
aF0.0
asg253
(lp4605
g44
(g48
S'f>\x94u\x19\x08x@'
p4606
tp4607
Rp4608
ag44
(g48
S'>U?^A\x1dy@'
p4609
tp4610
Rp4611
ag44
(g48
S'\xfdw\xa8\x8bh\x12x@'
p4612
tp4613
Rp4614
ag44
(g48
S'\x99U\xdf\xe2kkx@'
p4615
tp4616
Rp4617
ag44
(g48
S'\x88\\h\x11\xeb\x01x@'
p4618
tp4619
Rp4620
ag44
(g48
S'\x19S\xcd8\xa99x@'
p4621
tp4622
Rp4623
ag44
(g48
S't\x05\x0e\xd0^Nx@'
p4624
tp4625
Rp4626
ag44
(g48
S'P\xca\xc7\xad\xeb"x@'
p4627
tp4628
Rp4629
ag44
(g48
S"$dVh'Hx@"
p4630
tp4631
Rp4632
ag44
(g48
S'\xaeL\xb9\xfb\xba;x@'
p4633
tp4634
Rp4635
asg285
(lp4636
g44
(g48
S'\xe6\x80\n\x08}\x91r@'
p4637
tp4638
Rp4639
ag44
(g48
S'\x00w\xe1\xe8\xd9Nr@'
p4640
tp4641
Rp4642
ag44
(g48
S'\xa8\x7f\xdaL\xa8\xd2r@'
p4643
tp4644
Rp4645
ag44
(g48
S'\x08`\xab@\xbcZr@'
p4646
tp4647
Rp4648
ag44
(g48
S'\x98QL\xc9g\xb5r@'
p4649
tp4650
Rp4651
ag44
(g48
S'x\x10Y\xd7\x90\x89r@'
p4652
tp4653
Rp4654
ag44
(g48
S'n+\xc29%tr@'
p4655
tp4656
Rp4657
ag44
(g48
S'\xfa\x0f\xa7\xeab\xe0r@'
p4658
tp4659
Rp4660
ag44
(g48
S'\x00\x87\xba\xa0\xd0Tr@'
p4661
tp4662
Rp4663
ag44
(g48
S'h\xdefw\xb8Lq@'
p4664
tp4665
Rp4666
assS'c1908.isc'
p4667
(dp4668
g3
(lp4669
F0.0
aF1.1920928955078125e-06
aF0.0
aF0.0
aF0.0
aF0.0
aF0.0
aF9.5367431640625e-07
aF0.0
aF0.0
asg5
(lp4670
g7
(S'33.00000000000000000000000000'
p4671
tp4672
Rp4673
ag7
(S'33.00000000000000000000000000'
p4674
tp4675
Rp4676
ag7
(S'33.00000000000000000000000000'
p4677
tp4678
Rp4679
ag7
(S'33.00000000000000000000000000'
p4680
tp4681
Rp4682
ag7
(S'33.00000000000000000000000000'
p4683
tp4684
Rp4685
ag7
(S'33.00000000000000000000000000'
p4686
tp4687
Rp4688
ag7
(S'33.00000000000000000000000000'
p4689
tp4690
Rp4691
ag7
(S'33.00000000000000000000000000'
p4692
tp4693
Rp4694
ag7
(S'33.00000000000000000000000000'
p4695
tp4696
Rp4697
ag7
(S'33.00000000000000000000000000'
p4698
tp4699
Rp4700
asg38
(lp4701
F0.0
aF0.0
aF0.0
aF0.0
aF0.0
aF0.0
aF0.0
aF0.0
aF0.0
aF0.0
asg40
(lp4702
F0.1
aF0.1
aF0.1
aF0.1
aF0.1
aF0.1
aF0.1
aF0.1
aF0.1
aF0.1
asg42
(lp4703
g44
(g48
S'\xc5\xbbXo\x18\xbe\x80@'
p4704
tp4705
Rp4706
ag44
(g48
S'bv\xdd\xc0u\xe6\x7f@'
p4707
tp4708
Rp4709
ag44
(g48
S'\x9e\xb1q\x13zZ\x80@'
p4710
tp4711
Rp4712
ag44
(g48
S'\xed\x8e\xa1\xd6M?\x80@'
p4713
tp4714
Rp4715
ag44
(g48
S'\x84\x0bPil \x80@'
p4716
tp4717
Rp4718
ag44
(g48
S'\x86\xa5\xe6\xb9\xdc\xc7\x80@'
p4719
tp4720
Rp4721
ag44
(g48
S'OJ\x99\x80\xd4\xd4\x80@'
p4722
tp4723
Rp4724
ag44
(g48
S'6\xd0\xaf\xefh\x89\x80@'
p4725
tp4726
Rp4727
ag44
(g48
S'/s\xa5AQP\x80@'
p4728
tp4729
Rp4730
ag44
(g48
S'\xc4im\xfb\xde#\x80@'
p4731
tp4732
Rp4733
asg81
(lp4734
F16.22038984298706
aF20.72200298309326
aF13.83499789237976
aF16.81278395652771
aF19.279452085494995
aF15.212252855300903
aF11.836680173873901
aF15.020510911941528
aF19.368057012557983
aF16.793118000030518
asg83
(lp4735
g44
(g48
S'\xc5\x13\xbb\x8a\t\x0fb@'
p4736
tp4737
Rp4738
ag44
(g48
S'\xa3;\x83\xc9\xb8sd@'
p4739
tp4740
Rp4741
ag44
(g48
S'm\xc8\x91\xba\xff\rc@'
p4742
tp4743
Rp4744
ag44
(g48
S'3\x08\x87\xcc.\x84c@'
p4745
tp4746
Rp4747
ag44
(g48
S'\xca\x80\xc8\xe3\xad\xe0b@'
p4748
tp4749
Rp4750
ag44
(g48
S'0\xd8h\xcb\x0e)c@'
p4751
tp4752
Rp4753
ag44
(g48
S'\x81\xf7J\r\xd6\xb7c@'
p4754
tp4755
Rp4756
ag44
(g48
S'\x94\x9d\x0e>\\qc@'
p4757
tp4758
Rp4759
ag44
(g48
S'"Rh\x0b{\xaad@'
p4760
tp4761
Rp4762
ag44
(g48
S'j\x10\x13\xd1_Wd@'
p4763
tp4764
Rp4765
asg115
(lp4766
g44
(g48
S'\xf2\x05\x94(\xa0\x12%@'
p4767
tp4768
Rp4769
ag44
(g48
S'~\xc7O\xe3\x87>!@'
p4770
tp4771
Rp4772
ag44
(g48
S'\x97\x95\xe3{N\x1c#@'
p4773
tp4774
Rp4775
ag44
(g48
S'#\x9c\xc3\xfa\x7f\x9a"@'
p4776
tp4777
Rp4778
ag44
(g48
S'\xa7\xc0I\xb9\x8d\n"@'
p4779
tp4780
Rp4781
ag44
(g48
S'\x96\xaed\x185F%@'
p4782
tp4783
Rp4784
ag44
(g48
S'6Z\x18j]\x8b%@'
p4785
tp4786
Rp4787
ag44
(g48
S'\xf9\x95\x9f\xf8\xaa\x03$@'
p4788
tp4789
Rp4790
ag44
(g48
S'\x90\xf4\x90\xafl\xeb"@'
p4791
tp4792
Rp4793
ag44
(g48
S'\xb1\x04\x98Ep\x1a"@'
p4794
tp4795
Rp4796
asg147
(lp4797
F0.0
aF0.0
aF0.0
aF0.0
aF0.0
aF0.0
aF0.0
aF0.0
aF0.0
aF0.0
asg149
(lp4798
F0.1
aF0.1
aF0.1
aF0.1
aF0.1
aF0.1
aF0.1
aF0.1
aF0.1
aF0.1
asg151
(lp4799
g44
(g48
S'\xf9\x18\xb8\x023:5@'
p4800
tp4801
Rp4802
ag44
(g48
S'\xf9\x18\xb8\x023:5@'
p4803
tp4804
Rp4805
ag44
(g48
S'\xf9\x18\xb8\x023:5@'
p4806
tp4807
Rp4808
ag44
(g48
S'\xf9\x18\xb8\x023:5@'
p4809
tp4810
Rp4811
ag44
(g48
S'\xf9\x18\xb8\x023:5@'
p4812
tp4813
Rp4814
ag44
(g48
S'\xf9\x18\xb8\x023:5@'
p4815
tp4816
Rp4817
ag44
(g48
S'\xf9\x18\xb8\x023:5@'
p4818
tp4819
Rp4820
ag44
(g48
S'\xf9\x18\xb8\x023:5@'
p4821
tp4822
Rp4823
ag44
(g48
S'\xf9\x18\xb8\x023:5@'
p4824
tp4825
Rp4826
ag44
(g48
S'\xf9\x18\xb8\x023:5@'
p4827
tp4828
Rp4829
asg183
(lp4830
F0.0
aF0.0
aF0.0
aF0.0
aF0.0
aF0.0
aF0.0
aF0.0
aF0.0
aF0.0
asg185
(lp4831
F10.013870877944356
aF11.928510102085399
aF10.810626088758552
aF11.179950675531677
aF10.669002077420826
aF10.895184997225092
aF11.341367338003938
aF11.121130405452211
aF12.099631408260366
aF11.8399240368808
asg187
(lp4832
g44
(g48
S"\xd0fRj'\x9a~@"
p4833
tp4834
Rp4835
ag44
(g48
S'M\x1a\xa7g\xba\xcd|@'
p4836
tp4837
Rp4838
ag44
(g48
S'\xa7]\xdf\xab\x11\xb8}@'
p4839
tp4840
Rp4841
ag44
(g48
S'\xcd\xb5\r9fz}@'
p4842
tp4843
Rp4844
ag44
(g48
S's\xa2\xb6\xb2O4}@'
p4845
tp4846
Rp4847
ag44
(g48
S'@H<(R\xb0~@'
p4848
tp4849
Rp4850
ag44
(g48
S'\x8f\xfd\xa7\x03\xc1\xcd~@'
p4851
tp4852
Rp4853
ag44
(g48
S'G\x9a\xee$\x95"~@'
p4854
tp4855
Rp4856
ag44
(g48
S'\xaa)\x98\x12\x03\xa1}@'
p4857
tp4858
Rp4859
ag44
(g48
S'\xdbKF\xe1"<}@'
p4860
tp4861
Rp4862
asg219
(lp4863
g44
(g48
S'33333s_@'
p4864
tp4865
Rp4866
ag44
(g48
S'33333s\\@'
p4867
tp4868
Rp4869
ag44
(g48
S'33333\xf3]@'
p4870
tp4871
Rp4872
ag44
(g48
S'\xcd\xcc\xcc\xcc\xcc\x8c]@'
p4873
tp4874
Rp4875
ag44
(g48
S'\x9a\x99\x99\x99\x99\x19]@'
p4876
tp4877
Rp4878
ag44
(g48
S'\x9a\x99\x99\x99\x99\x99_@'
p4879
tp4880
Rp4881
ag44
(g48
S'\xcd\xcc\xcc\xcc\xcc\xcc_@'
p4882
tp4883
Rp4884
ag44
(g48
S'fffff\xa6^@'
p4885
tp4886
Rp4887
ag44
(g48
S'\xcd\xcc\xcc\xcc\xcc\xcc]@'
p4888
tp4889
Rp4890
ag44
(g48
S'fffff&]@'
p4891
tp4892
Rp4893
asg251
(lp4894
F0.0
aF0.0
aF0.0
aF0.0
aF0.0
aF0.0
aF0.0
aF0.0
aF0.0
aF0.0
asg253
(lp4895
g44
(g48
S'\xaa\xd5y\x16R\x1f\x1d@'
p4896
tp4897
Rp4898
ag44
(g48
S'\t\xb5\xdb\xe9t\xd2\x16@'
p4899
tp4900
Rp4901
ag44
(g48
S'\x17#\x0elX\xe0\x19@'
p4902
tp4903
Rp4904
ag44
(g48
S'j+\xa9\xcb\n\x0b\x19@'
p4905
tp4906
Rp4907
ag44
(g48
S'\x16\xcf\xcb\x96?\x1f\x18@'
p4908
tp4909
Rp4910
ag44
(g48
S'\xba\x08i1\x1eu\x1d@'
p4911
tp4912
Rp4913
ag44
(g48
S']\xe2\xe2#G\xe8\x1d@'
p4914
tp4915
Rp4916
ag44
(g48
S'0\xecFz\x06^\x1b@'
p4917
tp4918
Rp4919
ag44
(g48
S'>\xff\x1a\x98\xf2\x8f\x19@'
p4920
tp4921
Rp4922
ag44
(g48
S'\xc1\xf7,\xc3:9\x18@'
p4923
tp4924
Rp4925
asg285
(lp4926
g44
(g48
S'\xbc\x1c\xc6)\x86\x90\x1f@'
p4927
tp4928
Rp4929
ag44
(g48
S'\x8f\xb4\x89\xac\x8e\x9c#@'
p4930
tp4931
Rp4932
ag44
(g48
S'\x05\xc9ma3`!@'
p4933
tp4934
Rp4935
ag44
(g48
S'Ab)~K\x1d"@'
p4936
tp4937
Rp4938
ag44
(g48
S'\xcd\xbc+p\xb0\x17!@'
p4939
tp4940
Rp4941
ag44
(g48
S'\t\xaf\x92\xaf~\x8b!@'
p4942
tp4943
Rp4944
ag44
(g48
S'X\x14\x96\xb2\xf0o"@'
p4945
tp4946
Rp4947
ag44
(g48
S'\xa9\xb7h\xcd-\xff!@'
p4948
tp4949
Rp4950
ag44
(g48
S'\xbf\x0b\xc5\xe2+\xf4#@'
p4951
tp4952
Rp4953
ag44
(g48
S'\xcd\xd5o\x853o#@'
p4954
tp4955
Rp4956
assS'tire-4.cnf'
p4957
(dp4958
g3
(lp4959
F0.0
aF0.0
aF0.0
aF0.0
aF0.0
aF0.0
aF0.0
aF0.0
aF0.0
aF0.0
asg5
(lp4960
g7
(S'46.55231957355557370674436762'
p4961
tp4962
Rp4963
ag7
(S'46.55231957355557370674436762'
p4964
tp4965
Rp4966
ag7
(S'46.55231957355557370674436762'
p4967
tp4968
Rp4969
ag7
(S'46.55231957355557370674436762'
p4970
tp4971
Rp4972
ag7
(S'46.55231957355557370674436762'
p4973
tp4974
Rp4975
ag7
(S'46.55231957355557370674436762'
p4976
tp4977
Rp4978
ag7
(S'46.55231957355557370674436762'
p4979
tp4980
Rp4981
ag7
(S'46.55231957355557370674436762'
p4982
tp4983
Rp4984
ag7
(S'46.55231957355557370674436762'
p4985
tp4986
Rp4987
ag7
(S'46.55231957355557370674436762'
p4988
tp4989
Rp4990
asg38
(lp4991
F0.0
aF0.0
aF0.0
aF0.0
aF0.0
aF0.0
aF0.0
aF0.0
aF0.0
aF0.0
asg40
(lp4992
F0.1
aF0.1
aF0.1
aF0.1
aF0.1
aF0.1
aF0.1
aF0.1
aF0.1
aF0.1
asg42
(lp4993
g44
(g48
S'\xa3?$`\xe85y@'
p4994
tp4995
Rp4996
ag44
(g48
S'\xdaPt\x8b\xef\x8c}@'
p4997
tp4998
Rp4999
ag44
(g48
S'\xe5\xb4\xf4\x93\xd6\xb0z@'
p5000
tp5001
Rp5002
ag44
(g48
S'\xcePH\x85kJz@'
p5003
tp5004
Rp5005
ag44
(g48
S'\x12\x1b\x1b\xb0\x97\xbcy@'
p5006
tp5007
Rp5008
ag44
(g48
S'X\xa1 \x948\xbf}@'
p5009
tp5010
Rp5011
ag44
(g48
S'\x9fjv\xc1\xc4\x8b{@'
p5012
tp5013
Rp5014
ag44
(g48
S'\x12\x1b\x1b\xb0\x97\xbcy@'
p5015
tp5016
Rp5017
ag44
(g48
S'\x14,\x80\x0e\xbd\x9d{@'
p5018
tp5019
Rp5020
ag44
(g48
S'\xe3\x12\x8d\x9b\xc4\x82{@'
p5021
tp5022
Rp5023
asg81
(lp5024
F0.5066890716552734
aF0.524730920791626
aF0.5238540172576904
aF0.51727294921875
aF0.5278370380401611
aF0.5141341686248779
aF0.5153529644012451
aF0.514923095703125
aF0.5690209865570068
aF0.5435049533843994
asg83
(lp5025
g44
(g48
S'\r\xfd\xae\xa4?\xbf\\@'
p5026
tp5027
Rp5028
ag44
(g48
S'\xa8v\xd6M\x1a\x08W@'
p5029
tp5030
Rp5031
ag44
(g48
S'\xb8\x89\xf4\x92LaU@'
p5032
tp5033
Rp5034
ag44
(g48
S'n\xf2nN\x1f\x80W@'
p5035
tp5036
Rp5037
ag44
(g48
S'\xe9t\x9d3.\xedS@'
p5038
tp5039
Rp5040
ag44
(g48
S'\xd5z\x00#\x94\x90[@'
p5041
tp5042
Rp5043
ag44
(g48
S'\xcc\xa1\xb2L\x9e\xa0U@'
p5044
tp5045
Rp5046
ag44
(g48
S'Z/\xc1L\xdc\x87W@'
p5047
tp5048
Rp5049
ag44
(g48
S'p\xd2a11\x8eX@'
p5050
tp5051
Rp5052
ag44
(g48
S'\xf2\xe1\t\x83;\xc3W@'
p5053
tp5054
Rp5055
asg115
(lp5056
g44
(g48
S'C?>Z\x11\xb8\x05@'
p5057
tp5058
Rp5059
ag44
(g48
S'GX\xeei\x84e\x14@'
p5060
tp5061
Rp5062
ag44
(g48
S'\xbbtrq\x8dD\x0b@'
p5063
tp5064
Rp5065
ag44
(g48
S'7h\x9a\xe9\xd3\xad\t@'
p5066
tp5067
Rp5068
ag44
(g48
S'\xfc\xf8hE\xe0\x96\x07@'
p5069
tp5070
Rp5071
ag44
(g48
S'\x83~|\xb4"\xf0\x14@'
p5072
tp5073
Rp5074
ag44
(g48
S'*\xf0\x9d\x07S\xe6\x0e@'
p5075
tp5076
Rp5077
ag44
(g48
S'\xfc\xf8hE\xe0\x96\x07@'
p5078
tp5079
Rp5080
ag44
(g48
S'\xbc\x92\xf1\xa9m6\x0f@'
p5081
tp5082
Rp5083
ag44
(g48
S'[\x0b\x05tl\xbe\x0e@'
p5084
tp5085
Rp5086
asg147
(lp5087
F0.0
aF0.0
aF0.0
aF0.0
aF0.0
aF0.0
aF0.0
aF0.0
aF0.0
aF0.0
asg149
(lp5088
F0.1
aF0.1
aF0.1
aF0.1
aF0.1
aF0.1
aF0.1
aF0.1
aF0.1
aF0.1
asg151
(lp5089
g44
(g48
S'\xdb\x0b\x02g\x96\x126@'
p5090
tp5091
Rp5092
ag44
(g48
S'\xdb\x0b\x02g\x96\x126@'
p5093
tp5094
Rp5095
ag44
(g48
S'\xdb\x0b\x02g\x96\x126@'
p5096
tp5097
Rp5098
ag44
(g48
S'\xdb\x0b\x02g\x96\x126@'
p5099
tp5100
Rp5101
ag44
(g48
S'\xdb\x0b\x02g\x96\x126@'
p5102
tp5103
Rp5104
ag44
(g48
S'\xdb\x0b\x02g\x96\x126@'
p5105
tp5106
Rp5107
ag44
(g48
S'\xdb\x0b\x02g\x96\x126@'
p5108
tp5109
Rp5110
ag44
(g48
S'\xdb\x0b\x02g\x96\x126@'
p5111
tp5112
Rp5113
ag44
(g48
S'\xdb\x0b\x02g\x96\x126@'
p5114
tp5115
Rp5116
ag44
(g48
S'\xdb\x0b\x02g\x96\x126@'
p5117
tp5118
Rp5119
asg183
(lp5120
F0.0
aF0.0
aF0.0
aF0.0
aF0.0
aF0.0
aF0.0
aF0.0
aF0.0
aF0.0
asg185
(lp5121
F6.7056249789582
aF4.419459578314834
aF3.758828901985183
aF4.606990110094092
aF3.1773935234298554
aF6.23270318593427
aF3.8577652151984108
aF4.619081134522508
aF5.028974280739105
aF4.711849762737705
asg187
(lp5122
g44
(g48
S'\xaa\xcd\xc4\xa9\xe5\xb9t@'
p5123
tp5124
Rp5125
ag44
(g48
S'3\x1b\xc3*\x94\xafy@'
p5126
tp5127
Rp5128
ag44
(g48
S'\x88\x96K\x97\xcflv@'
p5129
tp5130
Rp5131
ag44
(g48
S'\x8f?\x85\xd8{\xf7u@'
p5132
tp5133
Rp5134
ag44
(g48
S'^G\xde\xd2\xbeTu@'
p5135
tp5136
Rp5137
ag44
(g48
S'\xa12W\xcc\xb4\xe8y@'
p5138
tp5139
Rp5140
ag44
(g48
S'%\xea\x0f\xe4\x1dgw@'
p5141
tp5142
Rp5143
ag44
(g48
S'^G\xde\xd2\xbeTu@'
p5144
tp5145
Rp5146
ag44
(g48
S'A\xa6\xdfL\xa2{w@'
p5147
tp5148
Rp5149
ag44
(g48
S':\x9d\xb3\xba\xd6\\w@'
p5150
tp5151
Rp5152
asg219
(lp5153
g44
(g48
S'\x9a\x99\x99\x99\x99\x99P@'
p5154
tp5155
Rp5156
ag44
(g48
S'\x00\x00\x00\x00\x00\xc0V@'
p5157
tp5158
Rp5159
ag44
(g48
S'\x9a\x99\x99\x99\x99\x99R@'
p5160
tp5161
Rp5162
ag44
(g48
S'\xcd\xcc\xcc\xcc\xcc\x0cR@'
p5163
tp5164
Rp5165
ag44
(g48
S'\xcd\xcc\xcc\xcc\xccLQ@'
p5166
tp5167
Rp5168
ag44
(g48
S'\xcd\xcc\xcc\xcc\xcc\x0cW@'
p5169
tp5170
Rp5171
ag44
(g48
S'\xcd\xcc\xcc\xcc\xcc\xccS@'
p5172
tp5173
Rp5174
ag44
(g48
S'\xcd\xcc\xcc\xcc\xccLQ@'
p5175
tp5176
Rp5177
ag44
(g48
S'fffff\xe6S@'
p5178
tp5179
Rp5180
ag44
(g48
S'\x00\x00\x00\x00\x00\xc0S@'
p5181
tp5182
Rp5183
asg251
(lp5184
F0.0
aF0.0
aF0.0
aF0.0
aF0.0
aF0.0
aF0.0
aF0.0
aF0.0
aF0.0
asg253
(lp5185
g44
(g48
S'_CW\x03\xda[\xf3?'
p5186
tp5187
Rp5188
ag44
(g48
S'\xbc\x90d\xf8cg\x07@'
p5189
tp5190
Rp5191
ag44
(g48
S'\xd0+q\x8b\x16\xfa\xfa?'
p5192
tp5193
Rp5194
ag44
(g48
S'\x13\xddI\x16\x97\xc1\xf8?'
p5195
tp5196
Rp5197
ag44
(g48
S'\x8foD,\xb6\xe1\xf5?'
p5198
tp5199
Rp5200
ag44
(g48
S'9`\xa1z\xd29\x08@'
p5201
tp5202
Rp5203
ag44
(g48
S'd\x1df\x90\x98\x13\x00@'
p5204
tp5205
Rp5206
ag44
(g48
S'\x8foD,\xb6\xe1\xf5?'
p5207
tp5208
Rp5209
ag44
(g48
S'M\x96\xc4\x81nM\x00@'
p5210
tp5211
Rp5212
ag44
(g48
S'\xd0\x9a\x8f\xaa\xa8\xed\xff?'
p5213
tp5214
Rp5215
asg285
(lp5216
g44
(g48
S'4r\x8b1S\xfe\x11@'
p5217
tp5218
Rp5219
ag44
(g48
S'\xf0\xcf.M\x95\xb2\x01@'
p5220
tp5221
Rp5222
ag44
(g48
S'H\x80\x84!9\xd3\xf8?'
p5223
tp5224
Rp5225
ag44
(g48
S'l\xc2\x16O\xa52\x03@'
p5226
tp5227
Rp5228
ag44
(g48
S'\x08\xc3\x14\xe5S\x0b\xef?'
p5229
tp5230
Rp5231
ag44
(g48
S'B\x08A\x95\r\x1a\x10@'
p5232
tp5233
Rp5234
ag44
(g48
S'\x00\xb4\xde_wh\xfa?'
p5235
tp5236
Rp5237
ag44
(g48
S'\x90\xb8\xea|hK\x03@'
p5238
tp5239
Rp5240
ag44
(g48
S'@\x8f\xb9\x8b\xde\x92\x06@'
p5241
tp5242
Rp5243
ag44
(g48
S'\x10\xf4l\xf7e\t\x04@'
p5244
tp5245
Rp5246
assS'tire-2.cnf'
p5247
(dp5248
g3
(lp5249
F0.0
aF0.0
aF0.0
aF0.0
aF0.0
aF0.0
aF1.1920928955078125e-06
aF0.0
aF0.0
aF0.0
asg5
(lp5250
g7
(S'39.42672413912856318873371974'
p5251
tp5252
Rp5253
ag7
(S'39.42672413912856318873371974'
p5254
tp5255
Rp5256
ag7
(S'39.42672413912856318873371974'
p5257
tp5258
Rp5259
ag7
(S'39.42672413912856318873371974'
p5260
tp5261
Rp5262
ag7
(S'39.42672413912856318873371974'
p5263
tp5264
Rp5265
ag7
(S'39.42672413912856318873371974'
p5266
tp5267
Rp5268
ag7
(S'39.42672413912856318873371974'
p5269
tp5270
Rp5271
ag7
(S'39.42672413912856318873371974'
p5272
tp5273
Rp5274
ag7
(S'39.42672413912856318873371974'
p5275
tp5276
Rp5277
ag7
(S'39.42672413912856318873371974'
p5278
tp5279
Rp5280
asg38
(lp5281
F0.0
aF0.0
aF0.0
aF0.0
aF0.0
aF0.0
aF0.0
aF0.0
aF0.0
aF0.0
asg40
(lp5282
F0.1
aF0.1
aF0.1
aF0.1
aF0.1
aF0.1
aF0.1
aF0.1
aF0.1
aF0.1
asg42
(lp5283
g44
(g48
S'\x10\xad\xc38\x9a\x02r@'
p5284
tp5285
Rp5286
ag44
(g48
S'\x8cu\xfb\xd8\xd78u@'
p5287
tp5288
Rp5289
ag44
(g48
S'\x03g\x89\xfc\xef0u@'
p5290
tp5291
Rp5292
ag44
(g48
S'\xff;\x10\x87\x91#s@'
p5293
tp5294
Rp5295
ag44
(g48
S'\xf12\xcbl-Cr@'
p5296
tp5297
Rp5298
ag44
(g48
S'\xb2\xa6\x03A/\x11u@'
p5299
tp5300
Rp5301
ag44
(g48
S'\xfe\xe8\x08j\xc6\x1as@'
p5302
tp5303
Rp5304
ag44
(g48
S'\x98\nv\x11\xdc=s@'
p5305
tp5306
Rp5307
ag44
(g48
S'\xc6p\xc6G\\\xd0s@'
p5308
tp5309
Rp5310
ag44
(g48
S'\xcf\xf2y0{\tv@'
p5311
tp5312
Rp5313
asg81
(lp5314
F0.30233001708984375
aF0.2944819927215576
aF0.3033750057220459
aF0.29132699966430664
aF0.302793025970459
aF0.34885406494140625
aF0.30329108238220215
aF0.3106520175933838
aF0.3259871006011963
aF0.3451240062713623
asg83
(lp5315
g44
(g48
S'\xfd\x86\xbfv\x0epP@'
p5316
tp5317
Rp5318
ag44
(g48
S'\n\xa8\xfa\xc8\xf1OS@'
p5319
tp5320
Rp5321
ag44
(g48
S'R\xe8{F\xc7ZQ@'
p5322
tp5323
Rp5324
ag44
(g48
S'*\xa9\x05\x00!\x9eS@'
p5325
tp5326
Rp5327
ag44
(g48
S'\xa5\x0c\xa9\xc7%(R@'
p5328
tp5329
Rp5330
ag44
(g48
S'6D\x12,\x84\x99R@'
p5331
tp5332
Rp5333
ag44
(g48
S'VhFt\x98XV@'
p5334
tp5335
Rp5336
ag44
(g48
S'\xf2\xa36\xab\xf9\x08W@'
p5337
tp5338
Rp5339
ag44
(g48
S'\xce 4\x1f\x175S@'
p5340
tp5341
Rp5342
ag44
(g48
S'\xf0\xb9\x9e\x02d\xd5T@'
p5343
tp5344
Rp5345
asg115
(lp5346
g44
(g48
S'\xd1\x98hE\xa8\xdb\xff?'
p5347
tp5348
Rp5349
ag44
(g48
S'\xadG\xe1z\x14\xae\x0f@'
p5350
tp5351
Rp5352
ag44
(g48
S'\xc2z\r\xa2\x00}\x0f@'
p5353
tp5354
Rp5355
ag44
(g48
S'\x11Q-md\x95\x04@'
p5356
tp5357
Rp5358
ag44
(g48
S'a?.Rs\xe5\x00@'
p5359
tp5360
Rp5361
ag44
(g48
S'\xbb\xe8\xa2\x8b.\xba\x0e@'
p5362
tp5363
Rp5364
ag44
(g48
S'n\x8e\xdd\xe6\xd8m\x04@'
p5365
tp5366
Rp5367
ag44
(g48
S'\xed\xf9\xd8\xc7\xeb\x0c\x05@'
p5368
tp5369
Rp5370
ag44
(g48
S'z\xc7):\x92\xcb\x07@'
p5371
tp5372
Rp5373
ag44
(g48
S'\x80\xe0I\xc0\xbc\x89\x12@'
p5374
tp5375
Rp5376
asg147
(lp5377
F0.0
aF0.0
aF0.0
aF0.0
aF0.0
aF0.0
aF0.0
aF0.0
aF0.0
aF0.0
asg149
(lp5378
F0.1
aF0.1
aF0.1
aF0.1
aF0.1
aF0.1
aF0.1
aF0.1
aF0.1
aF0.1
asg151
(lp5379
g44
(g48
S'\xe5m\xc7\x8fx*2@'
p5380
tp5381
Rp5382
ag44
(g48
S'\xe5m\xc7\x8fx*2@'
p5383
tp5384
Rp5385
ag44
(g48
S'\xe5m\xc7\x8fx*2@'
p5386
tp5387
Rp5388
ag44
(g48
S'\xe5m\xc7\x8fx*2@'
p5389
tp5390
Rp5391
ag44
(g48
S'\xe5m\xc7\x8fx*2@'
p5392
tp5393
Rp5394
ag44
(g48
S'\xe5m\xc7\x8fx*2@'
p5395
tp5396
Rp5397
ag44
(g48
S'\xe5m\xc7\x8fx*2@'
p5398
tp5399
Rp5400
ag44
(g48
S'\xe5m\xc7\x8fx*2@'
p5401
tp5402
Rp5403
ag44
(g48
S'\xe5m\xc7\x8fx*2@'
p5404
tp5405
Rp5406
ag44
(g48
S'\xe5m\xc7\x8fx*2@'
p5407
tp5408
Rp5409
asg183
(lp5410
F0.0
aF0.0
aF0.0
aF0.0
aF0.0
aF0.0
aF0.0
aF0.0
aF0.0
aF0.0
asg185
(lp5411
F3.3284620083653413
aF4.4782869669513925
aF3.6952150080492023
aF4.600450144512816
aF4.016104318321789
aF4.1932429427754325
aF5.691804234557722
aF5.967397585407101
aF4.43632735278177
aF5.086796641998745
asg187
(lp5412
g44
(g48
S'\xd5\x15.\x9c\xad\xddl@'
p5413
tp5414
Rp5415
ag44
(g48
S' \x15F(`2r@'
p5416
tp5417
Rp5418
ag44
(g48
S'CE\x06[+)r@'
p5419
tp5420
Rp5421
ag44
(g48
S'H\xe9>\x7f5\x86o@'
p5422
tp5423
Rp5424
ag44
(g48
S'\xafeH\xf4#vm@'
p5425
tp5426
Rp5427
ag44
(g48
S'\xc0\xd7}</\x04r@'
p5428
tp5429
Rp5430
ag44
(g48
S')\xb0_\xbc\x8fqo@'
p5431
tp5432
Rp5433
ag44
(g48
S'\xc6\xd3\xbb\xe2\xeb\xc3o@'
p5434
tp5435
Rp5436
ag44
(g48
S'SW;\x8f\xa0\x8dp@'
p5437
tp5438
Rp5439
ag44
(g48
S'}AB\xf0\x10%s@'
p5440
tp5441
Rp5442
asg219
(lp5443
g44
(g48
S'ffffffG@'
p5444
tp5445
Rp5446
ag44
(g48
S'\x00\x00\x00\x00\x00\x80P@'
p5447
tp5448
Rp5449
ag44
(g48
S'33333sP@'
p5450
tp5451
Rp5452
ag44
(g48
S'\x9a\x99\x99\x99\x99\x99J@'
p5453
tp5454
Rp5455
ag44
(g48
S'\x9a\x99\x99\x99\x99\x19H@'
p5456
tp5457
Rp5458
ag44
(g48
S'\x00\x00\x00\x00\x00@P@'
p5459
tp5460
Rp5461
ag44
(g48
S'\x00\x00\x00\x00\x00\x80J@'
p5462
tp5463
Rp5464
ag44
(g48
S'fffff\xe6J@'
p5465
tp5466
Rp5467
ag44
(g48
S'\x9a\x99\x99\x99\x99\x99L@'
p5468
tp5469
Rp5470
ag44
(g48
S'\x9a\x99\x99\x99\x99\xd9Q@'
p5471
tp5472
Rp5473
asg251
(lp5474
F0.0
aF0.0
aF0.0
aF0.0
aF0.0
aF0.0
aF0.0
aF0.0
aF0.0
aF0.0
asg253
(lp5475
g44
(g48
S'\xe3\xa6\xce\xe1\x1a\xda\xe7?'
p5476
tp5477
Rp5478
ag44
(g48
S'\x11Y\r$\x07\xa4\x00@'
p5479
tp5480
Rp5481
ag44
(g48
S'\xf1\x14[\xa0z\x80\x00@'
p5482
tp5483
Rp5484
ag44
(g48
S'$*w\xbdX\xda\xf1?'
p5485
tp5486
Rp5487
ag44
(g48
S'\x9d|\x0bP\xca=\xea?'
p5488
tp5489
Rp5490
ag44
(g48
S'"L\xed\xbc\x8b\xe7\xff?'
p5491
tp5492
Rp5493
ag44
(g48
S's\xb6\x1a[P\xa6\xf1?'
p5494
tp5495
Rp5496
ag44
(g48
S'\x1fG\x05t;x\xf2?'
p5497
tp5498
Rp5499
ag44
(g48
S'T\xb72\n\x8f)\xf6?'
p5500
tp5501
Rp5502
ag44
(g48
S'\x07e6/&\x9c\x04@'
p5503
tp5504
Rp5505
asg285
(lp5506
g44
(g48
S'\x94\xa2\xf2z\xa00\xf8?'
p5507
tp5508
Rp5509
ag44
(g48
S"\xa8T\x03\xab'K\x05@"
p5510
tp5511
Rp5512
ag44
(g48
S'\xb4D\xa8\xdf\xd8\x0e\xfe?'
p5513
tp5514
Rp5515
ag44
(g48
S't\x8b&[XE\x06@'
p5516
tp5517
Rp5518
ag44
(g48
S'00\xfe\xd9\x9a\x98\x01@'
p5519
tp5520
Rp5521
ag44
(g48
S'hH\xb5\x81b\x03\x03@'
p5522
tp5523
Rp5524
ag44
(g48
S'\x9cU\x8f5p\x00\x0f@'
p5525
tp5526
Rp5527
ag44
(g48
S'`={?m\x9a\x10@'
p5528
tp5529
Rp5530
ag44
(g48
S'\xb4p\xee\xbe8\xf5\x04@'
p5531
tp5532
Rp5533
ag44
(g48
S'\xbcZ\x10\xfda)\n@'
p5534
tp5535
Rp5536
assS'sat-grid-pbl-0030.cnf'
p5537
(dp5538
g3
(lp5539
F9.5367431640625e-07
aF0.0
aF0.0
aF0.0
aF0.0
aF0.0
aF0.0
aF0.0
aF0.0
aF0.0
asg5
(lp5540
g7
(S'724.8040925906512738608314491'
p5541
tp5542
Rp5543
ag7
(S'724.8040925906512738608314491'
p5544
tp5545
Rp5546
ag7
(S'724.8040925906512738608314491'
p5547
tp5548
Rp5549
ag7
(S'724.8040925906512738608314491'
p5550
tp5551
Rp5552
ag7
(S'724.8040925906512738608314491'
p5553
tp5554
Rp5555
ag7
(S'724.8040925906512738608314491'
p5556
tp5557
Rp5558
ag7
(S'724.8040925906512738608314491'
p5559
tp5560
Rp5561
ag7
(S'724.8040925906512738608314491'
p5562
tp5563
Rp5564
ag7
(S'724.8040925906512738608314491'
p5565
tp5566
Rp5567
ag7
(S'724.8040925906512738608314491'
p5568
tp5569
Rp5570
asg38
(lp5571
F0.0
aF0.0
aF0.0
aF0.0
aF0.0
aF0.0
aF0.0
aF0.0
aF0.0
aF0.0
asg40
(lp5572
F0.5
aF0.5
aF0.5
aF0.5
aF0.5
aF0.5
aF0.5
aF0.5
aF0.5
aF0.5
asg42
(lp5573
g44
(g48
S'\x01\x00\x00\x00\x00\x10\x8d@'
p5574
tp5575
Rp5576
ag44
(g48
S'\x01\x00\x00\x00\x00\x10\x8d@'
p5577
tp5578
Rp5579
ag44
(g48
S'\x01\x00\x00\x00\x00\x10\x8d@'
p5580
tp5581
Rp5582
ag44
(g48
S'\x01\x00\x00\x00\x00\x10\x8d@'
p5583
tp5584
Rp5585
ag44
(g48
S'\x01\x00\x00\x00\x00\x10\x8d@'
p5586
tp5587
Rp5588
ag44
(g48
S'\x01\x00\x00\x00\x00\x10\x8d@'
p5589
tp5590
Rp5591
ag44
(g48
S'\x01\x00\x00\x00\x00\x10\x8d@'
p5592
tp5593
Rp5594
ag44
(g48
S'\x01\x00\x00\x00\x00\x10\x8d@'
p5595
tp5596
Rp5597
ag44
(g48
S'\x01\x00\x00\x00\x00\x10\x8d@'
p5598
tp5599
Rp5600
ag44
(g48
S'\x01\x00\x00\x00\x00\x10\x8d@'
p5601
tp5602
Rp5603
asg81
(lp5604
F1.2915370464324951
aF1.255540132522583
aF1.1717941761016846
aF1.3954920768737793
aF1.0521059036254883
aF1.0242609977722168
aF1.7906270027160645
aF1.2260940074920654
aF1.3503808975219727
aF1.1708450317382812
asg83
(lp5605
g44
(g48
S'\x1a\x1f\xb2\xd3\xa5\xde\x86@'
p5606
tp5607
Rp5608
ag44
(g48
S'n\xed\x1b%\xe4\xf6\x87@'
p5609
tp5610
Rp5611
ag44
(g48
S'\xc6\x1f\xbb\xfch\x97\x87@'
p5612
tp5613
Rp5614
ag44
(g48
S'\xee\x0f=4\x0e\xbb\x87@'
p5615
tp5616
Rp5617
ag44
(g48
S'\xa5D\xf0g\xd1A\x87@'
p5618
tp5619
Rp5620
ag44
(g48
S'\x96O\xab\xf2_l\x87@'
p5621
tp5622
Rp5623
ag44
(g48
S'\x1a\xfc\x83\x8b]6\x87@'
p5624
tp5625
Rp5626
ag44
(g48
S'\x12\r\xf9\xd76F\x87@'
p5627
tp5628
Rp5629
ag44
(g48
S'\xce}\xe2\xe2\x9d\xa3\x87@'
p5630
tp5631
Rp5632
ag44
(g48
S'\xb1c\xadqYi\x87@'
p5633
tp5634
Rp5635
asg115
(lp5636
g44
(g48
S'\xb2\xe1_N1\xbdp@'
p5637
tp5638
Rp5639
ag44
(g48
S'\xcf\x08\xf0\x8c\x00_p@'
p5640
tp5641
Rp5642
ag44
(g48
S'\x08\x99\xa3\xc3lmp@'
p5643
tp5644
Rp5645
ag44
(g48
S'"n\xdf\xae\xc3\xbap@'
p5646
tp5647
Rp5648
ag44
(g48
S'BgW\xa7\xa98p@'
p5649
tp5650
Rp5651
ag44
(g48
S'\xa8\xa9\xa8\xcd\xbd\rp@'
p5652
tp5653
Rp5654
ag44
(g48
S'\xe8\xb2\xa4a~1p@'
p5655
tp5656
Rp5657
ag44
(g48
S'\xe9\xf3\\\x0b\x9c\x06p@'
p5658
tp5659
Rp5660
ag44
(g48
S'b\x9b\xf0\x82\xd6?p@'
p5661
tp5662
Rp5663
ag44
(g48
S'3\x81\xcd\xacq\xaeo@'
p5664
tp5665
Rp5666
asg147
(lp5667
F0.0
aF0.0
aF0.0
aF0.0
aF0.0
aF0.0
aF0.0
aF0.0
aF0.0
aF0.0
asg149
(lp5668
F0.5
aF0.5
aF0.5
aF0.5
aF0.5
aF0.5
aF0.5
aF0.5
aF0.5
aF0.5
asg151
(lp5669
g44
(g48
S'M\xfb\xa9\xf0<\x9f7@'
p5670
tp5671
Rp5672
ag44
(g48
S'M\xfb\xa9\xf0<\x9f7@'
p5673
tp5674
Rp5675
ag44
(g48
S'M\xfb\xa9\xf0<\x9f7@'
p5676
tp5677
Rp5678
ag44
(g48
S'M\xfb\xa9\xf0<\x9f7@'
p5679
tp5680
Rp5681
ag44
(g48
S'M\xfb\xa9\xf0<\x9f7@'
p5682
tp5683
Rp5684
ag44
(g48
S'M\xfb\xa9\xf0<\x9f7@'
p5685
tp5686
Rp5687
ag44
(g48
S'M\xfb\xa9\xf0<\x9f7@'
p5688
tp5689
Rp5690
ag44
(g48
S'M\xfb\xa9\xf0<\x9f7@'
p5691
tp5692
Rp5693
ag44
(g48
S'M\xfb\xa9\xf0<\x9f7@'
p5694
tp5695
Rp5696
ag44
(g48
S'M\xfb\xa9\xf0<\x9f7@'
p5697
tp5698
Rp5699
asg183
(lp5700
F0.0
aF0.0
aF0.0
aF0.0
aF0.0
aF0.0
aF0.0
aF0.0
aF0.0
aF0.0
asg185
(lp5701
F203.80074347130792
aF221.3159578318355
aF215.3483900273673
aF217.57622616663687
aF209.99888289349607
aF212.65868316609024
aF209.28309650988447
aF210.2736479408634
aF216.11130483161472
aF212.46959530609658
asg187
(lp5702
g44
(g48
S'\x01\x00\x00\x00\x00\x10\x8d@'
p5703
tp5704
Rp5705
ag44
(g48
S'\x01\x00\x00\x00\x00\x10\x8d@'
p5706
tp5707
Rp5708
ag44
(g48
S'\x01\x00\x00\x00\x00\x10\x8d@'
p5709
tp5710
Rp5711
ag44
(g48
S'\x01\x00\x00\x00\x00\x10\x8d@'
p5712
tp5713
Rp5714
ag44
(g48
S'\x01\x00\x00\x00\x00\x10\x8d@'
p5715
tp5716
Rp5717
ag44
(g48
S'\x01\x00\x00\x00\x00\x10\x8d@'
p5718
tp5719
Rp5720
ag44
(g48
S'\x01\x00\x00\x00\x00\x10\x8d@'
p5721
tp5722
Rp5723
ag44
(g48
S'\x01\x00\x00\x00\x00\x10\x8d@'
p5724
tp5725
Rp5726
ag44
(g48
S'\x01\x00\x00\x00\x00\x10\x8d@'
p5727
tp5728
Rp5729
ag44
(g48
S'\x01\x00\x00\x00\x00\x10\x8d@'
p5730
tp5731
Rp5732
asg219
(lp5733
g44
(g48
S'fffff\x0e\x86@'
p5734
tp5735
Rp5736
ag44
(g48
S'\x00\x00\x00\x00\x00\xd0\x85@'
p5737
tp5738
Rp5739
ag44
(g48
S'\x9a\x99\x99\x99\x99\xd9\x85@'
p5740
tp5741
Rp5742
ag44
(g48
S'\xcd\xcc\xcc\xcc\xcc\x0c\x86@'
p5743
tp5744
Rp5745
ag44
(g48
S'fffff\xb6\x85@'
p5746
tp5747
Rp5748
ag44
(g48
S'\x9a\x99\x99\x99\x99\x99\x85@'
p5749
tp5750
Rp5751
ag44
(g48
S'\x9a\x99\x99\x99\x99\xb1\x85@'
p5752
tp5753
Rp5754
ag44
(g48
S'\xcd\xcc\xcc\xcc\xcc\x94\x85@'
p5755
tp5756
Rp5757
ag44
(g48
S'33333\xbb\x85@'
p5758
tp5759
Rp5760
ag44
(g48
S'\xcd\xcc\xcc\xcc\xcct\x85@'
p5761
tp5762
Rp5763
asg251
(lp5764
F0.0
aF0.0
aF0.0
aF0.0
aF0.0
aF0.0
aF0.0
aF0.0
aF0.0
aF0.0
asg253
(lp5765
g44
(g48
S'\x8c\x93\xc2uOFo@'
p5766
tp5767
Rp5768
ag44
(g48
S'\x19U\x0e\xf3D\x90n@'
p5769
tp5770
Rp5771
ag44
(g48
S'\x8f\xb23\xaf#\xacn@'
p5772
tp5773
Rp5774
ag44
(g48
S'?\xa2L\xd4\x9dAo@'
p5775
tp5776
Rp5777
ag44
(g48
S'?o\x8c\x001Fn@'
p5778
tp5779
Rp5780
ag44
(g48
S'\xf6<\xf4`F\xf3m@'
p5781
tp5782
Rp5783
ag44
(g48
S'\x08\xe8\xc7MW8n@'
p5784
tp5785
Rp5786
ag44
(g48
S'\xf6\xb2\xfd\xb4\x7f\xe5m@'
p5787
tp5788
Rp5789
ag44
(g48
S'\x03\xf6\x1d\xdf\rTn@'
p5790
tp5791
Rp5792
ag44
(g48
S'\xe8\x80\xec\x99\xf9\x89m@'
p5793
tp5794
Rp5795
asg285
(lp5796
g44
(g48
S'e\x18\xbb\xe1\xab\xffg@'
p5797
tp5798
Rp5799
ag44
(g48
S'\r\xb5\x8e\x84(0j@'
p5800
tp5801
Rp5802
ag44
(g48
S'\xbd\x19\xcd32qi@'
p5803
tp5804
Rp5805
ag44
(g48
S'\r\xfa\xd0\xa2|\xb8i@'
p5806
tp5807
Rp5808
ag44
(g48
S'{c7\n\x03\xc6h@'
p5809
tp5810
Rp5811
ag44
(g48
S']y\xad\x1f \x1bi@'
p5812
tp5813
Rp5814
ag44
(g48
S'e\xd2^Q\x1b\xafh@'
p5815
tp5816
Rp5817
ag44
(g48
S'U\xf4H\xea\xcd\xceh@'
p5818
tp5819
Rp5820
ag44
(g48
S'\xcd\xd5\x1b\x00\x9c\x89i@'
p5821
tp5822
Rp5823
ag44
(g48
S'\x93\xa1\xb1\x1d\x13\x15i@'
p5824
tp5825
Rp5826
assS'log-2.cnf'
p5827
(dp5828
g3
(lp5829
F0.0
aF0.0
aF0.0
aF0.0
aF0.0
aF9.5367431640625e-07
aF0.0
aF0.0
aF0.0
aF9.5367431640625e-07
asg5
(lp5830
g7
(S'34.91236603505374120802572263'
p5831
tp5832
Rp5833
ag7
(S'34.91236603505374120802572263'
p5834
tp5835
Rp5836
ag7
(S'34.91236603505374120802572263'
p5837
tp5838
Rp5839
ag7
(S'34.91236603505374120802572263'
p5840
tp5841
Rp5842
ag7
(S'34.91236603505374120802572263'
p5843
tp5844
Rp5845
ag7
(S'34.91236603505374120802572263'
p5846
tp5847
Rp5848
ag7
(S'34.91236603505374120802572263'
p5849
tp5850
Rp5851
ag7
(S'34.91236603505374120802572263'
p5852
tp5853
Rp5854
ag7
(S'34.91236603505374120802572263'
p5855
tp5856
Rp5857
ag7
(S'34.91236603505374120802572263'
p5858
tp5859
Rp5860
asg38
(lp5861
F0.0
aF0.0
aF0.0
aF0.0
aF0.0
aF0.0
aF0.0
aF0.0
aF0.0
aF0.0
asg40
(lp5862
F0.1
aF0.01
aF0.01
aF0.01
aF0.01
aF0.01
aF0.01
aF0.01
aF0.01
aF0.01
asg42
(lp5863
g44
(g48
S'\x10\xaf\xc4\xd7\xf2Z\x80@'
p5864
tp5865
Rp5866
ag44
(g48
S'\xc7\x18w<\x1c\x94\x7f@'
p5867
tp5868
Rp5869
ag44
(g48
S'\x9f(\xb0fn\x1e\x7f@'
p5870
tp5871
Rp5872
ag44
(g48
S'\xa8\xa2&\x10\xefw~@'
p5873
tp5874
Rp5875
ag44
(g48
S'\xdaC\xcd?4\xe3~@'
p5876
tp5877
Rp5878
ag44
(g48
S'\\\x15\xe1\xd3\xc0\xaa\x80@'
p5879
tp5880
Rp5881
ag44
(g48
S'\xa3\x91\x17\x03I\x89{@'
p5882
tp5883
Rp5884
ag44
(g48
S'\xbc\xbc\xb1Y\x06\xf4\x80@'
p5885
tp5886
Rp5887
ag44
(g48
S'\x91p\x19\xab-\xee{@'
p5888
tp5889
Rp5890
ag44
(g48
S'\x19Ap\x1d\xed\xfa~@'
p5891
tp5892
Rp5893
asg81
(lp5894
F49.945425033569336
aF54.84424901008606
aF54.03033113479614
aF53.39419913291931
aF55.17934799194336
aF47.311219930648804
aF44.45835089683533
aF44.32368516921997
aF46.4666428565979
aF47.49911594390869
asg83
(lp5895
g44
(g48
S'\x06-\x01.o\x1e^@'
p5896
tp5897
Rp5898
ag44
(g48
S'\x12)\xf8|\xcf\xd7U@'
p5899
tp5900
Rp5901
ag44
(g48
S'\xab\xf8g\xf3\xdadP@'
p5902
tp5903
Rp5904
ag44
(g48
S'vtJ(\x90?S@'
p5905
tp5906
Rp5907
ag44
(g48
S'V\xd6\xe0\x86w\x0cU@'
p5908
tp5909
Rp5910
ag44
(g48
S"\xc3?\xd7'I\x97Y@"
p5911
tp5912
Rp5913
ag44
(g48
S'\xf4j\x9bF\x0ecV@'
p5914
tp5915
Rp5916
ag44
(g48
S'\x1a!\x1fX\x986U@'
p5917
tp5918
Rp5919
ag44
(g48
S'P\xdb\x9bv\xb6\xadT@'
p5920
tp5921
Rp5922
ag44
(g48
S'\xdb\xf2\xe5\x0fz\xadX@'
p5923
tp5924
Rp5925
asg115
(lp5926
g44
(g48
S'\x82\xed\x8dMR\xa6\x00@'
p5927
tp5928
Rp5929
ag44
(g48
S'q\xadya9\xfc\xfc?'
p5930
tp5931
Rp5932
ag44
(g48
S'\xa3\xebA\xd1\xe6W\xfb?'
p5933
tp5934
Rp5935
ag44
(g48
S'xR\xf0\x8e\t \xf9?'
p5936
tp5937
Rp5938
ag44
(g48
S'\xae\x89\xd7\xf2U\x8a\xfa?'
p5939
tp5940
Rp5941
ag44
(g48
S'\x15\xe7U0I\xec\x01@'
p5942
tp5943
Rp5944
ag44
(g48
S'\x8f\xe4\x8e\xaf\x16\x8e\xf0?'
p5945
tp5946
Rp5947
ag44
(g48
S'\x06\xf2\x90c\xb8%\x03@'
p5948
tp5949
Rp5950
ag44
(g48
S'#k\x9c)\xd7\x93\xf1?'
p5951
tp5952
Rp5953
ag44
(g48
S'\xdf\x02y\xc81\xdc\xfa?'
p5954
tp5955
Rp5956
asg147
(lp5957
F0.0
aF0.0
aF0.0
aF0.0
aF0.0
aF0.0
aF0.0
aF0.0
aF0.0
aF0.0
asg149
(lp5958
F0.1
aF0.1
aF0.01
aF0.01
aF0.01
aF0.1
aF0.1
aF0.01
aF0.01
aF0.1
asg151
(lp5959
g44
(g48
S'\xb5\x96\xbb\x00\xb9R<@'
p5960
tp5961
Rp5962
ag44
(g48
S'\xb5\x96\xbb\x00\xb9R<@'
p5963
tp5964
Rp5965
ag44
(g48
S'\xb5\x96\xbb\x00\xb9R<@'
p5966
tp5967
Rp5968
ag44
(g48
S'\xb5\x96\xbb\x00\xb9R<@'
p5969
tp5970
Rp5971
ag44
(g48
S'\xb5\x96\xbb\x00\xb9R<@'
p5972
tp5973
Rp5974
ag44
(g48
S'\xb5\x96\xbb\x00\xb9R<@'
p5975
tp5976
Rp5977
ag44
(g48
S'\xb5\x96\xbb\x00\xb9R<@'
p5978
tp5979
Rp5980
ag44
(g48
S'\xb5\x96\xbb\x00\xb9R<@'
p5981
tp5982
Rp5983
ag44
(g48
S'\xb5\x96\xbb\x00\xb9R<@'
p5984
tp5985
Rp5986
ag44
(g48
S'\xb5\x96\xbb\x00\xb9R<@'
p5987
tp5988
Rp5989
asg183
(lp5990
F0.0
aF0.0
aF0.0
aF0.0
aF0.0
aF0.0
aF0.0
aF0.0
aF0.0
aF0.0
asg185
(lp5991
F4.155300267607305
aF0.8449505877744494
aF0.5786048492447171
aF0.6927779489644833
aF0.7647941656894297
aF2.3441306870576684
aF1.0625213131611657
aF0.7713766958144
aF0.7499888290484631
aF1.9788041884877101
asg187
(lp5992
g44
(g48
S'\xe5\xfap"\xcf\xf2y@'
p5993
tp5994
Rp5995
ag44
(g48
S"8\xfa\xe0\xd7'\xa8x@"
p5996
tp5997
Rp5998
ag44
(g48
S'O\xcf\xc1\x1az!x@'
p5999
tp6000
Rp6001
ag44
(g48
S'\xf6\xea"\x1c\x80bw@'
p6002
tp6003
Rp6004
ag44
(g48
S'\x8d\xd1\x89\xc2\x99\xddw@'
p6005
tp6006
Rp6007
ag44
(g48
S'\xf8@\xf6\x84\\\xa8z@'
p6008
tp6009
Rp6010
ag44
(g48
S'\xbf\xb5&\x1bb\xfes@'
p6011
tp6012
Rp6013
ag44
(g48
S'\x9d\xb6P\xa1\xb8N{@'
p6014
tp6015
Rp6016
ag44
(g48
S'@\xa1o6\xd1st@'
p6017
tp6018
Rp6019
ag44
(g48
S'e\r\xf4m\xcb\xf8w@'
p6020
tp6021
Rp6022
asg219
(lp6023
g44
(g48
S'fffff\xa6R@'
p6024
tp6025
Rp6026
ag44
(g48
S'ffffffQ@'
p6027
tp6028
Rp6029
ag44
(g48
S'fffff\xe6P@'
p6030
tp6031
Rp6032
ag44
(g48
S'333333P@'
p6033
tp6034
Rp6035
ag44
(g48
S'fffff\xa6P@'
p6036
tp6037
Rp6038
ag44
(g48
S'\x9a\x99\x99\x99\x99YS@'
p6039
tp6040
Rp6041
ag44
(g48
S'\xcd\xcc\xcc\xcc\xccLJ@'
p6042
tp6043
Rp6044
ag44
(g48
S'\x00\x00\x00\x00\x00\x00T@'
p6045
tp6046
Rp6047
ag44
(g48
S'\x9a\x99\x99\x99\x99\x19K@'
p6048
tp6049
Rp6050
ag44
(g48
S'\x00\x00\x00\x00\x00\xc0P@'
p6051
tp6052
Rp6053
asg251
(lp6054
F0.0
aF0.0
aF0.0
aF0.0
aF0.0
aF0.0
aF0.0
aF0.0
aF0.0
aF0.0
asg253
(lp6055
g44
(g48
S'\xff$D;\xcb\xa0\xe9?'
p6056
tp6057
Rp6058
ag44
(g48
S'\xbd\x07\xd3\x1e\xa8c\xe4?'
p6059
tp6060
Rp6061
ag44
(g48
S'\x12\xd0\x84\x87\x17v\xe2?'
p6062
tp6063
Rp6064
ag44
(g48
S'\xbb\xa9S\x1f\x8d\xd8\xdf?'
p6065
tp6066
Rp6067
ag44
(g48
S'!\xb2@\x0f\x80\x88\xe1?'
p6068
tp6069
Rp6070
ag44
(g48
S'$\xd4\x9b9\xbd\xd2\xec?'
p6071
tp6072
Rp6073
ag44
(g48
S'6\xeea"E6\xcc?'
p6074
tp6075
Rp6076
ag44
(g48
S'\x92\x83\xa9\xbaE\xf5\xef?'
p6077
tp6078
Rp6079
ag44
(g48
S'\xafd\xcbj\xd0\x06\xd0?'
p6080
tp6081
Rp6082
ag44
(g48
S'\xec.\xb08\xcd\xe6\xe1?'
p6083
tp6084
Rp6085
asg285
(lp6086
g44
(g48
S'\xf4\xca\xfa \xf4*\xf5?'
p6087
tp6088
Rp6089
ag44
(g48
S'\xe1&0\x0b>m\xe0?'
p6090
tp6091
Rp6092
ag44
(g48
S'i\x94U;f\xe7\xd2?'
p6093
tp6094
Rp6095
ag44
(g48
S'\x8f\xdb\xad\xeb\x026\xda?'
p6096
tp6097
Rp6098
ag44
(g48
S'\x86<\x95\xd3\xec\xd1\xde?'
p6099
tp6100
Rp6101
ag44
(g48
S'+N\xe7\xe5^9\xe5?'
p6102
tp6103
Rp6104
ag44
(g48
S'7{\x90\xeey\x1f\xe1?'
p6105
tp6106
Rp6107
ag44
(g48
S'Rb|\xf5\xc5=\xdf?'
p6108
tp6109
Rp6110
ag44
(g48
S'&\xc4i\xbeZ\xdf\xdd?'
p6111
tp6112
Rp6113
ag44
(g48
S'\x9bf\xdb`\x18\x0e\xe4?'
p6114
tp6115
Rp6116
assI10
I10
F2.0
tp6117
.