((dp0
S'log-4.cnf'
p1
(dp2
S'barv_lower_bound'
p3
cnumpy.core.multiarray
scalar
p4
(cnumpy
dtype
p5
(S'f8'
p6
I0
I1
tp7
Rp8
(I3
S'<'
p9
NNNI-1
I-1
I0
tp10
bS'\xac\x1cL!-U\x8a?'
p11
tp12
Rp13
sS'exact_log_Z'
p14
cdecimal
Decimal
p15
(S'65.32345235557495907353541722'
p16
tp17
Rp18
sS'barv_upper_bound'
p19
g4
(g8
S'@\xc2\x1f\xd2\x9e8y@'
p20
tp21
Rp22
sS'gumbel_upper'
p23
F111.11832517957635
sS'barv_estimator'
p24
g4
(g8
S'\xad\xfc@I[/P@'
p25
tp26
Rp27
ssS'sat-grid-pbl-0010.cnf'
p28
(dp29
g3
g4
(g8
S'\xb8\xad\xa0\xb7@\xf4\xd7?'
p30
tp31
Rp32
sg14
g15
(S'54.74110355310283121263143109'
p33
tp34
Rp35
sg19
g4
(g8
S'\x98w\xd1\xd2\xda\x97P@'
p36
tp37
Rp38
sg23
F62.97619363830142
sg24
g4
(g8
S'\xaf\xe0\xa1\xce\xac\xaa=@'
p39
tp40
Rp41
ssS'tire-1.cnf'
p42
(dp43
g3
g4
(g8
S'\xe4\x14\x96\xe6\x84\xff\x81?'
p44
tp45
Rp46
sg14
g15
(S'20.40366757860640219747606596'
p47
tp48
Rp49
sg19
g4
(g8
S'$e\x0eP\x8fp^@'
p50
tp51
Rp52
sg23
F-0.019727114628940168
sg24
g4
(g8
S'yj\xcc\x1e\xf5\x0f:@'
p53
tp54
Rp55
ssS'log-1.cnf'
p56
(dp57
g3
g4
(g8
S'\x01Bi\x9e\x8e\xe0\x8a?'
p58
tp59
Rp60
sg14
g15
(S'47.78185814456179880189729527'
p61
tp62
Rp63
sg19
g4
(g8
S'\x04{\x08BO\xcao@'
p64
tp65
Rp66
sg23
F107.74566947050124
sg24
g4
(g8
S'\x00\xf7\xb7Z\x92\xcbK@'
p67
tp68
Rp69
ssS'tire-4.cnf'
p70
(dp71
g3
g4
(g8
S'\xbc\xec\x9e\x17\xfe\x9b\xad?'
p72
tp73
Rp74
sg14
g15
(S'32.26760906093560147581645240'
p75
tp76
Rp77
sg19
g4
(g8
S'g\x9f\xbd\x97\xf2eh@'
p78
tp79
Rp80
sg23
F56.73758635112476
sg24
g4
(g8
S'N\x84\x91\xfe\x90\r?@'
p81
tp82
Rp83
ssS'log-3.cnf'
p84
(dp85
g3
g4
(g8
S'{\xb1\x18\x187k\xc6?'
p86
tp87
Rp88
sg14
g15
(S'26.35754624642712697549596379'
p89
tp90
Rp91
sg19
g4
(g8
S'\xdb\xcb\xfeC\xe2\x12o@'
p92
tp93
Rp94
sg23
F76.23175436520279
sg24
g4
(g8
S'\xee\xb0\xbd\x16\\O;@'
p95
tp96
Rp97
ssS'tire-3.cnf'
p98
(dp99
g3
g4
(g8
S'\xdfo\xbd\x82\xa6\x12\xc2?'
p100
tp101
Rp102
sg14
g15
(S'26.12846440361733772531178430'
p103
tp104
Rp105
sg19
g4
(g8
S'\xc63kUc\x1fb@'
p106
tp107
Rp108
sg23
F13.971175000457848
sg24
g4
(g8
S'\xdaO\x19\xd7\xf7\x8b3@'
p109
tp110
Rp111
ssS'c1355.isc'
p112
(dp113
g3
g4
(g8
S'\x95\x88\x92\x9d\xcf\x1b\xd2?'
p114
tp115
Rp116
sg14
g15
(S'28.41903440295775768610651698'
p117
tp118
Rp119
sg19
g4
(g8
S'\xfc\xeb\xc5\xa5\x02!j@'
p120
tp121
Rp122
sg23
F161.15624961098845
sg24
g4
(g8
S'6m\x8d\nJfO@'
p123
tp124
Rp125
ssS'sat-grid-pbl-0015.cnf'
p126
(dp127
g3
g4
(g8
S'\x85\x1b\x82\n.K\x00@'
p128
tp129
Rp130
sg14
g15
(S'125.4425195006362289639072410'
p131
tp132
Rp133
sg19
g4
(g8
S'DH\xe4\xdf[\x8ca@'
p134
tp135
Rp136
sg23
F171.13646991689723
sg24
g4
(g8
S'\xd8\xab2\xf3\xe2eQ@'
p137
tp138
Rp139
ssS'sat-grid-pbl-0025.cnf'
p140
(dp141
g3
g4
(g8
S'Zv\x0b\xd5O\x85\x1d@'
p142
tp143
Rp144
sg14
g15
(S'348.2810069124694245655975633'
p145
tp146
Rp147
sg19
g4
(g8
S'\xeeS\x13\xb2v:v@'
p148
tp149
Rp150
sg23
F371.6282626990548
sg24
g4
(g8
S'K\x17\xf4\x90X\xb3f@'
p151
tp152
Rp153
ssS'c499.isc'
p154
(dp155
g3
g4
(g8
S' \x80\xa8\xd3\xe4\x0b\xcd?'
p156
tp157
Rp158
sg14
g15
(S'28.41903440295775768610651698'
p159
tp160
Rp161
sg19
g4
(g8
S'HM\xack\x19\xfb\\@'
p162
tp163
Rp164
sg23
F47.03337336599147
sg24
g4
(g8
S'\xc28\x15\xe3\xb0\xe4C@'
p165
tp166
Rp167
ssS'c432.isc'
p168
(dp169
g3
g4
(g8
S'H\xf7\x9d*\x9a\xae\xa3?'
p170
tp171
Rp172
sg14
g15
(S'24.95329850015803113902035637'
p173
tp174
Rp175
sg19
g4
(g8
S"\xf7\xc1\xa8$'\xd2V@"
p176
tp177
Rp178
sg23
F65.00821730594166
sg24
g4
(g8
S'k\xc8\xb8\xbe\xd3\xb9;@'
p179
tp180
Rp181
ssS'c880.isc'
p182
(dp183
g3
g4
(g8
S'A\x9b\x96\x9cc/\xd2?'
p184
tp185
Rp186
sg14
g15
(S'41.58883083359671856503392729'
p187
tp188
Rp189
sg19
g4
(g8
S',o\x00\x80\xb4\x80e@'
p190
tp191
Rp192
sg23
F147.7716423030326
sg24
g4
(g8
S'Y\x82\xbez\x9d=K@'
p193
tp194
Rp195
ssS'c1908.isc'
p196
(dp197
g3
g4
(g8
S'\x83cx\xd8\xbd9\xbe?'
p198
tp199
Rp200
sg14
g15
(S'22.87385695847819521076866001'
p201
tp202
Rp203
sg19
g4
(g8
S'\xf6\xd5\x8dm\x1b\tn@'
p204
tp205
Rp206
sg23
F52.89158995544239
sg24
g4
(g8
S'\r\x10\x8f\xd2\xccBO@'
p207
tp208
Rp209
ssS'sat-grid-pbl-0020.cnf'
p210
(dp211
g3
g4
(g8
S'\x89\x85\xdf\x8a\xba\x07\x12@'
p212
tp213
Rp214
sg14
g15
(S'220.3660190724091582010586847'
p215
tp216
Rp217
sg19
g4
(g8
S'd\x98\xce9\xc0\xb7m@'
p218
tp219
Rp220
sg23
F240.6183342246357
sg24
g4
(g8
S'\xeb\x83\x9aJ`J^@'
p221
tp222
Rp223
ssS'rb.cnf'
p224
(dp225
g3
g4
(g8
S'Grz\xa3\x8d\xe64@'
p226
tp227
Rp228
sg14
g15
(S'855.9432668896412104221506170'
p229
tp230
Rp231
sg19
g4
(g8
S'\x0fX\xb1/>\x13\x8d@'
p232
tp233
Rp234
sg23
F869.0960241615136
sg24
g4
(g8
S'\x13\x8f\xa5\x10\xd3Z}@'
p235
tp236
Rp237
ssS'c2670.isc'
p238
(dp239
g3
g4
(g8
S'\xedH\x17\xf1\xa5\xce\x03@'
p240
tp241
Rp242
sg14
g15
(S'161.5032930704672570942150843'
p243
tp244
Rp245
sg19
g4
(g8
S'\xdb\xdf\xb7\xd5\xf5\x19}@'
p246
tp247
Rp248
sg23
F296.02964423120494
sg24
g4
(g8
S'\x0e"\x08\xa3\x9a\x00e@'
p249
tp250
Rp251
ssS'ra.cnf'
p252
(dp253
g3
g4
(g8
S'\xbb*\xb6wy*3@'
p254
tp255
Rp256
sg14
g15
(S'659.1673732008658148371471422'
p257
tp258
Rp259
sg19
g4
(g8
S'\xa2I\x90"\x077\x85@'
p260
tp261
Rp262
sg23
F776.4120832506609
sg24
g4
(g8
S'"c\xef\x91`\x19w@'
p263
tp264
Rp265
ssS'log-2.cnf'
p266
(dp267
g3
g4
(g8
S'\xb8i\xfap\x96:\xde?'
p268
tp269
Rp270
sg14
g15
(S'24.19940808387429746877865551'
p271
tp272
Rp273
sg19
g4
(g8
S'\x17\x97\xd9\xc2%mh@'
p274
tp275
Rp276
sg23
F128.17092279007505
sg24
g4
(g8
S'yj\xcc\x1e\xf5\x0f\x1a@'
p277
tp278
Rp279
ssS'sat-grid-pbl-0030.cnf'
p280
(dp281
g3
g4
(g8
S'\xf3\xae\x17W\xf9\xb9-@'
p282
tp283
Rp284
sg14
g15
(S'502.3959132375194767325914187'
p285
tp286
Rp287
sg19
g4
(g8
S'\xf5\xd1ul\xe3\\\x80@'
p288
tp289
Rp290
sg23
F514.9972609339962
sg24
g4
(g8
S'm\x83+\xc8&\x01r@'
p291
tp292
Rp293
ssS'tire-2.cnf'
p294
(dp295
g3
g4
(g8
S'\xc5\x80\xf4\xb9J\xe2\xc0?'
p296
tp297
Rp298
sg14
g15
(S'27.32852267575170047911478367'
p299
tp300
Rp301
sg19
g4
(g8
S'p\xca\x8c"\xe1\xb4a@'
p302
tp303
Rp304
sg23
F56.81030718234645
sg24
g4
(g8
S'\x04\xad\x17\x0fu\xaf3@'
p305
tp306
Rp307
ssI1
I5
tp308
.